LX51 LINKER/LOCATER V4.66.30.0                                                          07/11/2017  21:49:04  PAGE 1


LX51 LINKER/LOCATER V4.66.30.0, INVOKED BY:
C:\SILICONLABS\SIMPLICITYSTUDIO\V4\DEVELOPER\TOOLCHAINS\KEIL_8051\9.53\BIN\LX51.EXE ./lib/cslib/application_layer/cslib_
>> config.OBJ, ./lib/efm8sb1/cslib/device_layer/hardware_config.OBJ, ./lib/efm8sb1/cslib/device_layer/hardware_routines.
>> OBJ, ./lib/efm8sb1/cslib/device_layer/low_power_config.OBJ, ./lib/efm8sb1/cslib/serial_interface/comm_routines.OBJ, .
>> /lib/efm8sb1/cslib/serial_interface/profiler_interface.OBJ, ./lib/efm8sb1/cslib/serial_interface/sensor_descriptors.O
>> BJ, ./src/InitDevice.OBJ, ./src/SILABS_STARTUP.OBJ, ./src/circle_slider.OBJ, ./src/main.OBJ, ./src/tick.OBJ, ./src/to
>> uchy.OBJ, C:/SiliconLabs/SimplicityStudio/v4/developer/sdks/8051/v4.0.4/Lib/efm8_capsense/CSLIBRARY.LIB TO BOLDPORTTO
>> UCHYAPIDEMO.OMF.CRBUILD REMOVEUNUSED PRINT (.\BoldportTouchyAPIDemo.m51) PAGEWIDTH (120) PAGELENGTH (65) CLASSES (COD
>> E (C:0X0-C:0X1FFE), CONST (C:0X0-C:0X1FFE), ECODE (C:0X0-C:0X1FFE), HCONST (C:0X0-C:0X1FFE), XDATA (X:0X0-X:0XFF), HD
>> ATA (X:0X0-X:0XFF))




PROGRAM RECURSIONS REMOVED FROM CALL TREE
=========================================
+--> ?CO?FILTER_CONFIG
|  | UPDATEEXPONENTIALAVERAGING/EXPONENTIAL_AVERAGING
<--+ _CSLIB_CHECKNOISEONCHANNEL/NOISE_ROUTINES



CPU MODE:     8051 MODE
MEMORY MODEL: SMALL


INPUT MODULES INCLUDED:
  ./lib/cslib/application_layer/cslib_config.OBJ (CSLIB_CONFIG)
         COMMENT TYPE 0: C51 V9.53.0.0
  ./lib/efm8sb1/cslib/device_layer/hardware_config.OBJ (HARDWARE_CONFIG)
         COMMENT TYPE 0: C51 V9.53.0.0
  ./lib/efm8sb1/cslib/device_layer/hardware_routines.OBJ (HARDWARE_ROUTINES)
         COMMENT TYPE 0: C51 V9.53.0.0
  ./lib/efm8sb1/cslib/device_layer/low_power_config.OBJ (LOW_POWER_CONFIG)
         COMMENT TYPE 0: C51 V9.53.0.0
  ./lib/efm8sb1/cslib/serial_interface/comm_routines.OBJ (COMM_ROUTINES)
         COMMENT TYPE 0: C51 V9.53.0.0
  ./lib/efm8sb1/cslib/serial_interface/profiler_interface.OBJ (PROFILER_INTERFACE)
         COMMENT TYPE 0: C51 V9.53.0.0
  ./lib/efm8sb1/cslib/serial_interface/sensor_descriptors.OBJ (SENSOR_DESCRIPTORS)
         COMMENT TYPE 0: C51 V9.53.0.0
  ./src/InitDevice.OBJ (INITDEVICE)
         COMMENT TYPE 0: C51 V9.53.0.0
  ./src/SILABS_STARTUP.OBJ (?C_STARTUP)
         COMMENT TYPE 0: AX51 V3.12.0.0
  ./src/circle_slider.OBJ (CIRCLE_SLIDER)
         COMMENT TYPE 0: C51 V9.53.0.0
  ./src/main.OBJ (MAIN)
         COMMENT TYPE 0: C51 V9.53.0.0
  ./src/tick.OBJ (TICK)
         COMMENT TYPE 0: C51 V9.53.0.0
  ./src/touchy.OBJ (TOUCHY)
         COMMENT TYPE 0: C51 V9.53.0.0
  C:/SiliconLabs/SimplicityStudio/v4/developer/sdks/8051/v4.0.4/Lib/efm8_capsense/CSLIBRARY.LIB (LOW_POWER_ROUTINES)
         COMMENT TYPE 1: C51 Compiler
  C:/SiliconLabs/SimplicityStudio/v4/developer/sdks/8051/v4.0.4/Lib/efm8_capsense/CSLIBRARY.LIB (MASTER_ALGORITHM_CONFIG
>> )
         COMMENT TYPE 1: C51 Compiler
  C:/SiliconLabs/SimplicityStudio/v4/developer/sdks/8051/v4.0.4/Lib/efm8_capsense/CSLIBRARY.LIB (NOISE_ROUTINES)
         COMMENT TYPE 1: C51 Compiler
  C:/SiliconLabs/SimplicityStudio/v4/developer/sdks/8051/v4.0.4/Lib/efm8_capsense/CSLIBRARY.LIB (SENSOR_NODE_ROUTINES)
         COMMENT TYPE 1: C51 Compiler
  C:/SiliconLabs/SimplicityStudio/v4/developer/sdks/8051/v4.0.4/Lib/efm8_capsense/CSLIBRARY.LIB (BASELINE_ROUTINES)
LX51 LINKER/LOCATER V4.66.30.0                                                        07/11/2017  21:49:04  PAGE 2


         COMMENT TYPE 1: C51 Compiler
  C:/SiliconLabs/SimplicityStudio/v4/developer/sdks/8051/v4.0.4/Lib/efm8_capsense/CSLIBRARY.LIB (DATA_SHAPING_ROUTINES)
         COMMENT TYPE 1: C51 Compiler
  C:/SiliconLabs/SimplicityStudio/v4/developer/sdks/8051/v4.0.4/Lib/efm8_capsense/CSLIBRARY.LIB (FILTER_CONFIG)
         COMMENT TYPE 1: C51 Compiler
  C:/SiliconLabs/SimplicityStudio/v4/developer/sdks/8051/v4.0.4/Lib/efm8_capsense/CSLIBRARY.LIB (SCANNING_ROUTINES)
         COMMENT TYPE 1: C51 Compiler
  C:/SiliconLabs/SimplicityStudio/v4/developer/sdks/8051/v4.0.4/Lib/efm8_capsense/CSLIBRARY.LIB (THRESHOLD_ROUTINES)
         COMMENT TYPE 1: C51 Compiler
  C:/SiliconLabs/SimplicityStudio/v4/developer/sdks/8051/v4.0.4/Lib/efm8_capsense/CSLIBRARY.LIB (DATA_PROCESSING)
         COMMENT TYPE 1: C51 Compiler
  C:/SiliconLabs/SimplicityStudio/v4/developer/sdks/8051/v4.0.4/Lib/efm8_capsense/CSLIBRARY.LIB (EXPONENTIAL_AVERAGING)
         COMMENT TYPE 1: C51 Compiler
  C:\SILICONLABS\SIMPLICITYSTUDIO\V4\DEVELOPER\TOOLCHAINS\KEIL_8051\9.53\LIB\C51S.LIB (?C_INIT)
         COMMENT TYPE 1: A51 / ASM51 Assembler
  C:\SILICONLABS\SIMPLICITYSTUDIO\V4\DEVELOPER\TOOLCHAINS\KEIL_8051\9.53\LIB\C51S.LIB (?C?COPY)
         COMMENT TYPE 1: A51 / ASM51 Assembler
  C:\SILICONLABS\SIMPLICITYSTUDIO\V4\DEVELOPER\TOOLCHAINS\KEIL_8051\9.53\LIB\C51S.LIB (?C?IMUL)
         COMMENT TYPE 1: A51 / ASM51 Assembler
  C:\SILICONLABS\SIMPLICITYSTUDIO\V4\DEVELOPER\TOOLCHAINS\KEIL_8051\9.53\LIB\C51S.LIB (?C?UIDIV)
         COMMENT TYPE 1: A51 / ASM51 Assembler
  C:\SILICONLABS\SIMPLICITYSTUDIO\V4\DEVELOPER\TOOLCHAINS\KEIL_8051\9.53\LIB\C51S.LIB (?C?IILDX)
         COMMENT TYPE 1: A51 / ASM51 Assembler
  C:\SILICONLABS\SIMPLICITYSTUDIO\V4\DEVELOPER\TOOLCHAINS\KEIL_8051\9.53\LIB\C51S.LIB (?C?ILDPTR)
         COMMENT TYPE 1: A51 / ASM51 Assembler
  C:\SILICONLABS\SIMPLICITYSTUDIO\V4\DEVELOPER\TOOLCHAINS\KEIL_8051\9.53\LIB\C51S.LIB (?C?ILDOPTR)
         COMMENT TYPE 1: A51 / ASM51 Assembler
  C:\SILICONLABS\SIMPLICITYSTUDIO\V4\DEVELOPER\TOOLCHAINS\KEIL_8051\9.53\LIB\C51S.LIB (?C?IILDPTR)
         COMMENT TYPE 1: A51 / ASM51 Assembler
  C:\SILICONLABS\SIMPLICITYSTUDIO\V4\DEVELOPER\TOOLCHAINS\KEIL_8051\9.53\LIB\C51S.LIB (?C?ISTPTR)
         COMMENT TYPE 1: A51 / ASM51 Assembler
  C:\SILICONLABS\SIMPLICITYSTUDIO\V4\DEVELOPER\TOOLCHAINS\KEIL_8051\9.53\LIB\C51S.LIB (?C?ISTOPTR)
         COMMENT TYPE 1: A51 / ASM51 Assembler
  C:\SILICONLABS\SIMPLICITYSTUDIO\V4\DEVELOPER\TOOLCHAINS\KEIL_8051\9.53\LIB\C51S.LIB (?C?LMUL)
         COMMENT TYPE 1: A51 / ASM51 Assembler
  C:\SILICONLABS\SIMPLICITYSTUDIO\V4\DEVELOPER\TOOLCHAINS\KEIL_8051\9.53\LIB\C51S.LIB (?C?ULDIV)
         COMMENT TYPE 1: A51 / ASM51 Assembler
  C:\SILICONLABS\SIMPLICITYSTUDIO\V4\DEVELOPER\TOOLCHAINS\KEIL_8051\9.53\LIB\C51S.LIB (?C?ULCMP)
         COMMENT TYPE 1: A51 / ASM51 Assembler
  C:\SILICONLABS\SIMPLICITYSTUDIO\V4\DEVELOPER\TOOLCHAINS\KEIL_8051\9.53\LIB\C51S.LIB (?C?LSHL)
         COMMENT TYPE 1: A51 / ASM51 Assembler
  C:\SILICONLABS\SIMPLICITYSTUDIO\V4\DEVELOPER\TOOLCHAINS\KEIL_8051\9.53\LIB\C51S.LIB (?C?LLDIDATA0)
         COMMENT TYPE 1: A51 / ASM51 Assembler
  C:\SILICONLABS\SIMPLICITYSTUDIO\V4\DEVELOPER\TOOLCHAINS\KEIL_8051\9.53\LIB\C51S.LIB (?C?LSTIDATA)
         COMMENT TYPE 1: A51 / ASM51 Assembler
  C:\SILICONLABS\SIMPLICITYSTUDIO\V4\DEVELOPER\TOOLCHAINS\KEIL_8051\9.53\LIB\C51S.LIB (?C?LSTXDATA)
         COMMENT TYPE 1: A51 / ASM51 Assembler
  C:\SILICONLABS\SIMPLICITYSTUDIO\V4\DEVELOPER\TOOLCHAINS\KEIL_8051\9.53\LIB\C51S.LIB (?C?LSTKIDATA)
         COMMENT TYPE 1: A51 / ASM51 Assembler
  C:\SILICONLABS\SIMPLICITYSTUDIO\V4\DEVELOPER\TOOLCHAINS\KEIL_8051\9.53\LIB\C51S.LIB (?C?OFFXADD)
         COMMENT TYPE 1: A51 / ASM51 Assembler
  C:\SILICONLABS\SIMPLICITYSTUDIO\V4\DEVELOPER\TOOLCHAINS\KEIL_8051\9.53\LIB\C51S.LIB (?C?ICALL)
         COMMENT TYPE 1: A51 / ASM51 Assembler
  C:\SILICONLABS\SIMPLICITYSTUDIO\V4\DEVELOPER\TOOLCHAINS\KEIL_8051\9.53\LIB\C51S.LIB (?C?LIMUL)
         COMMENT TYPE 1: A51 / ASM51 Assembler
  C:\SILICONLABS\SIMPLICITYSTUDIO\V4\DEVELOPER\TOOLCHAINS\KEIL_8051\9.53\LIB\C51S.LIB (PRINTF)
         COMMENT TYPE 1: A51 / ASM51 Assembler
  C:\SILICONLABS\SIMPLICITYSTUDIO\V4\DEVELOPER\TOOLCHAINS\KEIL_8051\9.53\LIB\C51S.LIB (?C?CLDPTR)
         COMMENT TYPE 1: A51 / ASM51 Assembler
  C:\SILICONLABS\SIMPLICITYSTUDIO\V4\DEVELOPER\TOOLCHAINS\KEIL_8051\9.53\LIB\C51S.LIB (?C?CLDOPTR)
         COMMENT TYPE 1: A51 / ASM51 Assembler
  C:\SILICONLABS\SIMPLICITYSTUDIO\V4\DEVELOPER\TOOLCHAINS\KEIL_8051\9.53\LIB\C51S.LIB (?C?CSTPTR)
LX51 LINKER/LOCATER V4.66.30.0                                                        07/11/2017  21:49:04  PAGE 3


         COMMENT TYPE 1: A51 / ASM51 Assembler
  C:\SILICONLABS\SIMPLICITYSTUDIO\V4\DEVELOPER\TOOLCHAINS\KEIL_8051\9.53\LIB\C51S.LIB (?C?PLDIIDATA)
         COMMENT TYPE 1: A51 / ASM51 Assembler
  C:\SILICONLABS\SIMPLICITYSTUDIO\V4\DEVELOPER\TOOLCHAINS\KEIL_8051\9.53\LIB\C51S.LIB (?C?CCASE)
         COMMENT TYPE 1: A51 / ASM51 Assembler
  C:\SILICONLABS\SIMPLICITYSTUDIO\V4\DEVELOPER\TOOLCHAINS\KEIL_8051\9.53\LIB\C51S.LIB (PUTCHAR)
         COMMENT TYPE 1: A51 / ASM51 Assembler


ACTIVE MEMORY CLASSES OF MODULE:  BOLDPORTTOUCHYAPIDEMO.OMF.CRBUILD (CSLIB_CONFIG)

BASE        START       END         USED      MEMORY CLASS
==========================================================
C:000000H   C:000000H   C:001FFEH   001BBAH   CODE
C:000000H   C:000000H   C:001FFEH   00001BH   CONST
C:000000H   C:000000H   C:001FFEH             ECODE
B00:0000H   C:000000H   C:001FFEH             HCONST
X:000000H   X:000000H   X:0000FFH   0000B2H   XDATA
X:000000H   X:000000H   X:0000FFH             HDATA
I:000000H   I:000000H   I:00007FH   00004DH   DATA
I:000000H   I:000000H   I:0000FFH   000095H   IDATA
I:000020H.0 I:000020H.0 I:00002FH.7           BIT


MEMORY MAP OF MODULE:  BOLDPORTTOUCHYAPIDEMO.OMF.CRBUILD (CSLIB_CONFIG)


START     STOP      LENGTH    ALIGN  RELOC    MEMORY CLASS   SEGMENT NAME
=========================================================================

* * * * * * * * * * *   D A T A   M E M O R Y   * * * * * * * * * * * * *
000000H   000007H   000008H   ---    AT..     DATA           "REG BANK 0"
000008H   00001AH   000013H   BYTE   UNIT     DATA           ?DT?CSLIB_CONFIG
00001BH   00002DH   000013H   BYTE   UNIT     DATA           _DATA_GROUP_
00002EH   000038H   00000BH   BYTE   UNIT     DATA           ?DT?TOUCHY
000039H   00003FH   000007H   BYTE   UNIT     DATA           ?DT?LOW_POWER_CONFIG
000040H   000045H   000006H   BYTE   UNIT     DATA           ?DT?COMM_ROUTINES
000046H   000047H   000002H   BYTE   UNIT     DATA           ?DT?PROFILER_INTERFACE
000048H   000049H   000002H   BYTE   UNIT     DATA           ?DT?TICK
00004AH   00004BH   000002H   BYTE   UNIT     DATA           ?DT?LOW_POWER_ROUTINES
00004CH   00004CH   000001H   BYTE   UNIT     DATA           ?DT?MAIN
00004DH   000083H   000037H   BYTE   UNIT     IDATA          ?ID?PROFILER_INTERFACE
000084H   0000A1H   00001EH   BYTE   UNIT     IDATA          ?ID?COMM_ROUTINES
0000A2H   0000BCH   00001BH   BYTE   UNIT     IDATA          ?ID?HARDWARE_ROUTINES
0000BDH   0000CBH   00000FH   BYTE   UNIT     IDATA          _IDATA_GROUP_
0000CCH   0000D3H   000008H   BYTE   UNIT     IDATA          ?ID?NOISE_ROUTINES
0000D4H   0000DAH   000007H   BYTE   UNIT     IDATA          ?ID?LOW_POWER_ROUTINES
0000DBH   0000DEH   000004H   BYTE   UNIT     IDATA          ?ID?BASELINE_ROUTINES
0000DFH   0000DFH   000001H   BYTE   UNIT     IDATA          ?ID?DATA_PROCESSING
0000E0H   0000E0H   000001H   BYTE   UNIT     IDATA          ?ID?EXPONENTIAL_AVERAGING
0000E1H   0000E1H   000001H   BYTE   UNIT     IDATA          ?STACK

* * * * * * * * * * *   C O D E   M E M O R Y   * * * * * * * * * * * * *
000000H   000002H   000003H   ---    OFFS..   CODE           ?CO?SILABS_STARTUP?3
000003H   000071H   00006FH   BYTE   UNIT     CODE           ?PR?_CSLIB_NODEPUSHPROCESS?SENSOR_NODE_ROUTINES
000072H   000072H   000001H   BYTE   UNIT     CODE           ?PR?INIT_SENSINGVARIABLES?MASTER_ALGORITHM_CONFIG
000073H   000075H   000003H   BYTE   OFFS..   CODE           ?TICK?00073
000076H   00051BH   0004A6H   BYTE   UNIT     CODE           ?C?LIB_CODE
00051CH   000680H   000165H   BYTE   UNIT     CODE           ?PR?UPDATEEXPONENTIALAVERAGING?EXPONENTIAL_AVERAGING
000681H   0007D5H   000155H   BYTE   UNIT     CODE           ?PR?CALCULATEPOSITION?CIRCLE_SLIDER
0007D6H   0008CBH   0000F6H   BYTE   UNIT     CODE           ?PR?UPDATEALLNOISELEVELS?NOISE_ROUTINES
0008CCH   0009B2H   0000E7H   BYTE   UNIT     CODE           ?PR?_UPDATEBASELINE?BASELINE_ROUTINES
LX51 LINKER/LOCATER V4.66.30.0                                                        07/11/2017  21:49:04  PAGE 4


0009B3H   000A94H   0000E2H   BYTE   UNIT     CODE           ?PR?UPDATEPROCESSDATA?DATA_PROCESSING
000A95H   000B5EH   0000CAH   BYTE   UNIT     CODE           ?PR?INIT_BASELINEROUTINES?BASELINE_ROUTINES
000B5FH   000C0FH   0000B1H   BYTE   UNIT     CODE           ?PR?_THRESHOLDUPDATE_WITHHYSTANDDEBOUNCE?THRESHOLD_ROUTINE
                                                             -S
000C10H   000CB6H   0000A7H   BYTE   UNIT     CODE           ?PR?CSLIB_LOWPOWERUPDATE?LOW_POWER_ROUTINES
000CB7H   000D59H   0000A3H   BYTE   UNIT     CODE           ?PR?SLEEPMODESCANTICK?LOW_POWER_ROUTINES
000D5AH   000DF1H   000098H   BYTE   UNIT     CODE           ?C_INITSEG
000DF2H   000E80H   00008FH   BYTE   UNIT     CODE           ?C_C51STARTUP
000E81H   000F0DH   00008DH   BYTE   UNIT     CODE           ?PR?MAIN?MAIN
000F0EH   000F92H   000085H   BYTE   UNIT     CODE           ?PR?ISTOUCHQUALIFIED?CIRCLE_SLIDER
000F93H   001009H   000077H   BYTE   UNIT     CODE           ?PR?TOUCHYBUTTONREFRESH?TOUCHY
00100AH   00107FH   000076H   BYTE   UNIT     CODE           ?PR?INITSLEEPMODEBASELINE?LOW_POWER_ROUTINES
001080H   0010EDH   00006EH   BYTE   UNIT     CODE           ?PR?SENSOR_NODE_ROUTINES
0010EEH   001153H   000066H   BYTE   UNIT     CODE           ?PR?UPDATETHRESHOLDS?THRESHOLD_ROUTINES
001154H   0011B9H   000066H   BYTE   UNIT     CODE           ?PR?INIT_EXPONENTIALAVERAGING?EXPONENTIAL_AVERAGING
0011BAH   001217H   00005EH   BYTE   UNIT     CODE           ?PR?_CSLIB_NODEPUSHRAW?SENSOR_NODE_ROUTINES
001218H   00126DH   000056H   BYTE   UNIT     CODE           ?PR?RTC_INIT?LOW_POWER_CONFIG
00126EH   0012C0H   000053H   BYTE   UNIT     CODE           ?PR?_SIMPLEDELAY?MAIN
0012C1H   001311H   000051H   BYTE   UNIT     CODE           ?CO?PROFILER_INTERFACE
001312H   00135FH   00004EH   BYTE   UNIT     CODE           ?PR?_CSLIB_RESETSENSORSTRUCT_T?SENSOR_NODE_ROUTINES
001360H   0013ADH   00004EH   BYTE   UNIT     CODE           ?PR?_CSLIB_NODEGETRAW?SENSOR_NODE_ROUTINES
0013AEH   0013ECH   00003FH   BYTE   UNIT     CODE           ?PR?EXPONENTIAL_AVERAGING
0013EDH   001429H   00003DH   BYTE   UNIT     CODE           ?PR?TOUCHYLEDREFRESH?TOUCHY
00142AH   001466H   00003DH   BYTE   UNIT     CODE           ?PR?_CSLIB_CHECKNOISEONCHANNEL?NOISE_ROUTINES
001467H   00149DH   000037H   BYTE   UNIT     CODE           ?PR?_INCREMENTACTIVEDEBOUNCECOUNT?SENSOR_NODE_ROUTINES
00149EH   0014D1H   000034H   BYTE   UNIT     CODE           ?PR?BASELINE_ROUTINES
0014D2H   001505H   000034H   BYTE   UNIT     CODE           ?PR?INIT_PROCESSDATA?DATA_PROCESSING
001506H   001538H   000033H   BYTE   UNIT     CODE           ?PR?SCANALLSENSORS?SCANNING_ROUTINES
001539H   001569H   000031H   BYTE   UNIT     CODE           ?PR?_NODEINIT?HARDWARE_ROUTINES
00156AH   00159AH   000031H   BYTE   UNIT     CODE           ?PR?_TOUCHYSETLEDINTENSITY?TOUCHY
00159BH   0015CAH   000030H   BYTE   UNIT     CODE           ?PR?_UPDATELED?MAIN
0015CBH   0015F9H   00002FH   BYTE   UNIT     CODE           ?PR?UPDATERTCFLAGS?LOW_POWER_CONFIG
0015FAH   001628H   00002FH   BYTE   UNIT     CODE           ?PR?_INCREMENTINACTIVEDEBOUNCECOUNT?SENSOR_NODE_ROUTINES
001629H   001656H   00002EH   BYTE   UNIT     CODE           ?PR?INIT_THRESHOLDROUTINES?THRESHOLD_ROUTINES
001657H   001683H   00002DH   BYTE   UNIT     CODE           ?PR?_SCANSENSOR?HARDWARE_ROUTINES
001684H   0016AFH   00002CH   BYTE   UNIT     CODE           ?PR?READYREGISTERSFORSLEEP?LOW_POWER_CONFIG
0016B0H   0016DBH   00002CH   BYTE   UNIT     CODE           ?PR?_RTC_WRITEALARM?LOW_POWER_CONFIG
0016DCH   001704H   000029H   BYTE   UNIT     CODE           ?PR?_CSLIB_NODEGETPROCESS?SENSOR_NODE_ROUTINES
001705H   00172CH   000028H   BYTE   UNIT     CODE           ?PR?ENTER_DEFAULTMODE_FROM_RESET?INITDEVICE
00172DH   001754H   000028H   BYTE   UNIT     CODE           ?PR?_TOUCHYLEDTOGGLE?TOUCHY
001755H   001779H   000025H   BYTE   UNIT     CODE           ?PR?CONFIGUREPORTSACTIVEMODE?HARDWARE_ROUTINES
00177AH   00179DH   000024H   BYTE   UNIT     CODE           ?PR?CSLIB_ANYSENSORDEBOUNCEACTIVE?SENSOR_NODE_ROUTINES
00179EH   0017C0H   000023H   BYTE   UNIT     CODE           ?PR?SHAPESCANNEDDATA?DATA_SHAPING_ROUTINES
0017C1H   0017E2H   000022H   BYTE   UNIT     CODE           ?PR?EXECUTECONVERSION?HARDWARE_ROUTINES
0017E3H   001804H   000022H   BYTE   UNIT     CODE           ?PR?RTC_0_ENTER_DEFAULTMODE_FROM_RESET?INITDEVICE
001805H   001825H   000021H   BYTE   UNIT     CODE           ?PR?RESTOREREGISTERSFROMSLEEP?LOW_POWER_CONFIG
001826H   001844H   00001FH   BYTE   UNIT     CODE           ?PR?CONFIGURECS0ACTIVEMODE?HARDWARE_ROUTINES
001845H   001863H   00001FH   BYTE   UNIT     CODE           ?PR?_RTC_SETALARMPERIOD?LOW_POWER_CONFIG
001864H   001881H   00001EH   BYTE   UNIT     CODE           ?PR?INIT_DATASHAPINGROUTINES?DATA_SHAPING_ROUTINES
001882H   00189FH   00001EH   BYTE   UNIT     CODE           ?PR?THRESHOLD_ROUTINES
0018A0H   0018BCH   00001DH   BYTE   UNIT     CODE           ?PR?RTC_ZEROCURRENTTIME?LOW_POWER_CONFIG
0018BDH   0018D8H   00001CH   BYTE   UNIT     CODE           ?PR?TICK_INIT?TICK
0018D9H   0018F4H   00001CH   BYTE   UNIT     CODE           ?PR?_TOUCHYSETLEDS?TOUCHY
0018F5H   00190FH   00001BH   BYTE   UNIT     CODE           ?CO?FILTER_CONFIG
001910H   001927H   000018H   BYTE   UNIT     CODE           ?PR?CSLIB_INITLIBRARY?MASTER_ALGORITHM_CONFIG
001928H   00193EH   000017H   BYTE   UNIT     CODE           ?PR?ENTERLOWPOWERSTATE?LOW_POWER_CONFIG
00193FH   001955H   000017H   BYTE   UNIT     CODE           ?PR?_NORMALIZEANGLE?CIRCLE_SLIDER
001956H   00196CH   000017H   BYTE   UNIT     CODE           ?PR?CSLIB_INITSENSORSTRUCT_TS?SENSOR_NODE_ROUTINES
00196DH   001982H   000016H   BYTE   UNIT     CODE           ?PR?CONFIGURECS0SLEEPMODE?LOW_POWER_CONFIG
001983H   001998H   000016H   BYTE   UNIT     CODE           ?PR?_TOUCHYLEDON?TOUCHY
001999H   0019ADH   000015H   BYTE   UNIT     CODE           ?PR?_TOUCHYLEDOFF?TOUCHY
0019AEH   0019C1H   000014H   BYTE   UNIT     CODE           ?PR?UPDATEALLBASELINES?BASELINE_ROUTINES
LX51 LINKER/LOCATER V4.66.30.0                                                        07/11/2017  21:49:04  PAGE 5


0019C2H   0019D4H   000013H   BYTE   UNIT     CODE           ?PR?DATA_PROCESSING
0019D5H   0019E6H   000012H   BYTE   UNIT     CODE           ?PR?CONFIGURERTCSLEEPMODE?LOW_POWER_CONFIG
0019E7H   0019F8H   000012H   BYTE   UNIT     CODE           ?PR?CONFIGURERTCACTIVEMODE?LOW_POWER_CONFIG
0019F9H   001A0AH   000012H   BYTE   UNIT     CODE           ?PR?TOUCHYSLEEPLEDS?TOUCHY
001A0BH   001A1CH   000012H   BYTE   UNIT     CODE           ?PR?CSLIB_UPDATE?MASTER_ALGORITHM_CONFIG
001A1DH   001A2DH   000011H   BYTE   UNIT     CODE           ?PR?_TOUCHYREADLEDINTENSITY?TOUCHY
001A2EH   001A3DH   000010H   BYTE   UNIT     CODE           ?PR?TIMER3_ISR?TICK
001A3EH   001A4CH   00000FH   BYTE   UNIT     CODE           ?PR?LPM_INIT?LOW_POWER_CONFIG
001A4DH   001A5BH   00000FH   BYTE   UNIT     CODE           ?PR?_RTC_WRITE?LOW_POWER_CONFIG
001A5CH   001A69H   00000EH   BYTE   UNIT     CODE           ?PR?_RTC0CN_SETBITS?LOW_POWER_CONFIG
001A6AH   001A77H   00000EH   BYTE   UNIT     CODE           ?PR?_CSLIB_NODEOVERWRITEPROCESS?SENSOR_NODE_ROUTINES
001A78H   001A85H   00000EH   BYTE   UNIT     CODE           ?PR?_THRESHOLDDETECT_EXPONENTIALDATA?EXPONENTIAL_AVERAGING
001A86H   001A92H   00000DH   BYTE   UNIT     CODE           ?PR?CHECKTIMER?LOW_POWER_CONFIG
001A93H   001A9FH   00000DH   BYTE   UNIT     CODE           ?PR?CONFIGUREPORTSSLEEPMODE?LOW_POWER_CONFIG
001AA0H   001AACH   00000DH   BYTE   UNIT     CODE           ?PR?PORTS_1_ENTER_DEFAULTMODE_FROM_RESET?INITDEVICE
001AADH   001AB9H   00000DH   BYTE   UNIT     CODE           ?PR?INIT_LOWPOWERROUTINES?LOW_POWER_ROUTINES
001ABAH   001AC6H   00000DH   BYTE   UNIT     CODE           ?PR?_CSLIB_GETUNPACKEDTOUCHDELTA?SENSOR_NODE_ROUTINES
001AC7H   001AD3H   00000DH   BYTE   UNIT     CODE           ?PR?DATA_SHAPING_ROUTINES
001AD4H   001ADFH   00000CH   BYTE   UNIT     CODE           ?PR?PCA_0_ENTER_DEFAULTMODE_FROM_RESET?INITDEVICE
001AE0H   001AEBH   00000CH   BYTE   UNIT     CODE           ?PR?_CSLIB_ISSENSORSINGLEACTIVE?SENSOR_NODE_ROUTINES
001AECH   001AF7H   00000CH   BYTE   UNIT     CODE           ?PR?_CSLIB_ISSENSORDEBOUNCEACTIVE?SENSOR_NODE_ROUTINES
001AF8H   001B03H   00000CH   BYTE   UNIT     CODE           ?PR?_THRESHOLDDETECT_PROCESSEDDATA?DATA_PROCESSING
001B04H   001B0EH   00000BH   BYTE   UNIT     CODE           ?PR?_RTC_READ?LOW_POWER_CONFIG
001B0FH   001B19H   00000BH   BYTE   UNIT     CODE           ?PR?TOUCHYSLEEPNOW?TOUCHY
001B1AH   001B23H   00000AH   BYTE   UNIT     CODE           ?PR?PBCFG_0_ENTER_DEFAULTMODE_FROM_RESET?INITDEVICE
001B24H   001B2DH   00000AH   BYTE   UNIT     CODE           ?PR?INIT_NOISEROUTINES?NOISE_ROUTINES
001B2EH   001B36H   000009H   BYTE   UNIT     CODE           ?PR?CLOCK_0_ENTER_DEFAULTMODE_FROM_RESET?INITDEVICE
001B37H   001B3FH   000009H   BYTE   UNIT     CODE           ?PR?NOISE_ROUTINES
001B40H   001B48H   000009H   BYTE   UNIT     CODE           ?PR?_CSLIB_GETACTIVEDEBOUNCECOUNT?SENSOR_NODE_ROUTINES
001B49H   001B50H   000008H   BYTE   UNIT     CODE           ?PR?_RESETINACTIVEDEBOUNCECOUNT?SENSOR_NODE_ROUTINES
001B51H   001B58H   000008H   BYTE   UNIT     CODE           ?PR?_RESETACTIVEDEBOUNCECOUNT?SENSOR_NODE_ROUTINES
001B59H   001B5FH   000007H   BYTE   UNIT     CODE           ?PR?PCACH_2_ENTER_DEFAULTMODE_FROM_RESET?INITDEVICE
001B60H   001B66H   000007H   BYTE   UNIT     CODE           ?PR?PORTS_0_ENTER_DEFAULTMODE_FROM_RESET?INITDEVICE
001B67H   001B6DH   000007H   BYTE   UNIT     CODE           ?PR?PCACH_0_ENTER_DEFAULTMODE_FROM_RESET?INITDEVICE
001B6EH   001B74H   000007H   BYTE   UNIT     CODE           ?PR?PCACH_1_ENTER_DEFAULTMODE_FROM_RESET?INITDEVICE
001B75H   001B7AH   000006H   BYTE   UNIT     CODE           ?PR?_SETGAIN?HARDWARE_ROUTINES
001B7BH   001B80H   000006H   BYTE   UNIT     CODE           ?PR?_SETACCUMULATION?HARDWARE_ROUTINES
001B81H   001B86H   000006H   BYTE   UNIT     CODE           ?PR?CONFIGURESENSORFORACTIVEMODE?HARDWARE_ROUTINES
001B87H   001B8CH   000006H   BYTE   UNIT     CODE           ?PR?CONFIGURESENSORFORSLEEPMODE?LOW_POWER_CONFIG
001B8DH   001B92H   000006H   BYTE   UNIT     CODE           ?PR?CSLIB_0_ENTER_DEFAULTMODE_FROM_RESET?INITDEVICE
001B93H   001B98H   000006H   BYTE   UNIT     CODE           ?PR?TOUCHYGETPRESSEDBUTTONS?TOUCHY
001B99H   001B9EH   000006H   BYTE   UNIT     CODE           ?PR?CSLIB_INITHARDWARE?MASTER_ALGORITHM_CONFIG
001B9FH   001BA3H   000005H   BYTE   UNIT     CODE           ?PR?TOUCHYREADSLIDER?TOUCHY
001BA4H   001BA7H   000004H   BYTE   UNIT     CODE           ?PR?SILABS_STARTUP?INITDEVICE
001BA8H   001BABH   000004H   BYTE   UNIT     CODE           ?PR?FLASH_0_ENTER_DEFAULTMODE_FROM_RESET?INITDEVICE
001BACH   001BAEH   000003H   BYTE   UNIT     CODE           ?PR?_SETMUX?HARDWARE_ROUTINES
001BAFH   001BB1H   000003H   BYTE   UNIT     CODE           ?PR?CONFIGURETIMERFORACTIVEMODE?LOW_POWER_CONFIG
001BB2H   001BB4H   000003H   BYTE   UNIT     CODE           ?PR?CONFIGURETIMERFORSLEEPMODE?LOW_POWER_CONFIG
001BB5H   001BB7H   000003H   BYTE   UNIT     CODE           ?PR?TOUCHYREADLEDS?TOUCHY
001BB8H   001BB8H   000001H   BYTE   UNIT     CODE           ?PR?INIT_SCANNINGROUTINES?SCANNING_ROUTINES
001BB9H   001BB9H   000001H   BYTE   UNIT     CODE           ?PR?UPDATEALLTOUCHDELTAS?THRESHOLD_ROUTINES
001BBAH   001BD4H   00001BH   BYTE   UNIT     CONST          ?CO?HARDWARE_CONFIG

* * * * * * * * * * *  X D A T A   M E M O R Y  * * * * * * * * * * * * *
000000H   0000A1H   0000A2H   BYTE   UNIT     XDATA          ?XD?CSLIB_CONFIG
0000A2H   0000AAH   000009H   BYTE   UNIT     XDATA          _XDATA_GROUP_
0000ABH   0000B1H   000007H   BYTE   UNIT     XDATA          ?XD?LOW_POWER_CONFIG

* * * * * * * * *   R E M O V E D     S E G M E N T S   * * * * * * * *
   *DEL*:           000006H   BYTE   UNIT     CODE           ?PR?READGAIN?HARDWARE_ROUTINES
   *DEL*:           000003H   BYTE   UNIT     CODE           ?PR?READMUX?HARDWARE_ROUTINES
   *DEL*:           000034H   BYTE   UNIT     CODE           ?PR?RTC_GETCURRENTTIME?LOW_POWER_CONFIG
LX51 LINKER/LOCATER V4.66.30.0                                                        07/11/2017  21:49:04  PAGE 6


   *DEL*:           000004H   BYTE   UNIT     DATA           ?DT?RTC_GETCURRENTTIME?LOW_POWER_CONFIG
   *DEL*:           000028H   BYTE   UNIT     CODE           ?PR?_RTC_SETCURRENTTIME?LOW_POWER_CONFIG
   *DEL*:           000004H   BYTE   UNIT     DATA           ?DT?_RTC_SETCURRENTTIME?LOW_POWER_CONFIG
   *DEL*:           00000AH   BYTE   UNIT     CODE           ?PR?_RTC0CN_CLEARBITS?LOW_POWER_CONFIG
   *DEL*:           000008H   BYTE   UNIT     CODE           ?PR?GETCHAR?COMM_ROUTINES
   *DEL*:           000041H   BYTE   UNIT     CODE           ?PR?GETU16?COMM_ROUTINES
   *DEL*:           00000BH   BYTE   UNIT     CODE           ?PR?GETU8?COMM_ROUTINES
   *DEL*:           000001H   BYTE   UNIT     DATA           ?DT?GETU8?COMM_ROUTINES
   *DEL*:           00000DH   BYTE   UNIT     CODE           ?PR?CSLIB_COMMINIT?COMM_ROUTINES
   *DEL*:           00001AH   BYTE   UNIT     CODE           ?PR?UART0_INIT?COMM_ROUTINES
   *DEL*:           00003DH   BYTE   UNIT     CODE           ?PR?OUTPUTHEADERCOUNT?COMM_ROUTINES
   *DEL*:           000005H   BYTE   UNIT     DATA           ?DT?OUTPUTHEADERCOUNT?COMM_ROUTINES
   *DEL*:           000009H   BYTE   UNIT     CODE           ?PR?OUTPUTBREAK?COMM_ROUTINES
   *DEL*:           000009H   BYTE   UNIT     CODE           ?PR?OUTPUTBEGINHEADER?COMM_ROUTINES
   *DEL*:           000009H   BYTE   UNIT     CODE           ?PR?OUTPUTNEWLINE?COMM_ROUTINES
   *DEL*:           000049H   BYTE   UNIT     CODE           ?PR?_PRINTOUTPUTSINGACT?COMM_ROUTINES
   *DEL*:           000005H   BYTE   UNIT     DATA           ?DT?_PRINTOUTPUTSINGACT?COMM_ROUTINES
   *DEL*:           000049H   BYTE   UNIT     CODE           ?PR?_PRINTOUTPUTDEBACT?COMM_ROUTINES
   *DEL*:           000005H   BYTE   UNIT     DATA           ?DT?_PRINTOUTPUTDEBACT?COMM_ROUTINES
   *DEL*:           00004BH   BYTE   UNIT     CODE           ?PR?_PRINTOUTPUTTDELTA?COMM_ROUTINES
   *DEL*:           000004H   BYTE   UNIT     DATA           ?DT?_PRINTOUTPUTTDELTA?COMM_ROUTINES
   *DEL*:           00005CH   BYTE   UNIT     CODE           ?PR?_PRINTOUTPUT?COMM_ROUTINES
   *DEL*:           000004H   BYTE   UNIT     DATA           ?DT?_PRINTOUTPUT?COMM_ROUTINES
   *DEL*:           00002AH   BYTE   UNIT     CODE           ?CO?COMM_ROUTINES
   *DEL*:           0000FBH   BYTE   UNIT     CODE           ?PR?CSLIB_COMMUPDATE?PROFILER_INTERFACE
   *DEL*:           000037H   BYTE   UNIT     CODE           ?PR?CALCULATEOFFSETS?PROFILER_INTERFACE
   *DEL*:           000038H   BYTE   UNIT     CODE           ?PR?PRINTHEADER?PROFILER_INTERFACE
   *DEL*:           000001H   BYTE   UNIT     DATA           ?DT?PRINTHEADER?PROFILER_INTERFACE
   *DEL*:           000002H   BYTE   UNIT     XDATA          ?XD?CSLIB_COMMUPDATE?PROFILER_INTERFACE
   *DEL*:           000046H   BYTE   UNIT     CODE           ?PR?OUTPUTSENSORDESCRIPTORS?SENSOR_DESCRIPTORS
   *DEL*:           000001H   BYTE   UNIT     DATA           ?DT?OUTPUTSENSORDESCRIPTORS?SENSOR_DESCRIPTORS
   *DEL*:           00006EH   BYTE   UNIT     CODE           ?CO?SENSOR_DESCRIPTORS
   *DEL*:           000001H   BYTE   UNIT     CODE           ?PR?VREG_0_ENTER_DEFAULTMODE_FROM_RESET?INITDEVICE
   *DEL*:           000001H   BYTE   UNIT     CODE           ?PR?HFOSC_0_ENTER_DEFAULTMODE_FROM_RESET?INITDEVICE
   *DEL*:           000001H   BYTE   UNIT     CODE           ?PR?TIMER01_0_ENTER_DEFAULTMODE_FROM_RESET?INITDEVICE
   *DEL*:           000001H   BYTE   UNIT     CODE           ?PR?TIMER_SETUP_0_ENTER_DEFAULTMODE_FROM_RESET?INITDEVICE
   *DEL*:           000001H   BYTE   UNIT     CODE           ?PR?TIMER16_3_ENTER_DEFAULTMODE_FROM_RESET?INITDEVICE
   *DEL*:           00000BH   BYTE   UNIT     CODE           ?PR?TICK_GETCOUNT?TICK
   *DEL*:           00001DH   BYTE   UNIT     CODE           ?PR?_TICK_WAIT?TICK
   *DEL*:           000003H   BYTE   UNIT     CODE           ?PR?TOUCHYREADBUTTONS?TOUCHY
   *DEL*:           000003H   BYTE   UNIT     CODE           ?PR?TOUCHYGETCHANGEDBUTTONS?TOUCHY
   *DEL*:           000007H   BYTE   UNIT     CODE           ?PR?TOUCHYGETRELEASEDBUTTONS?TOUCHY
   *DEL*:           000056H   BYTE   UNIT     CODE           ?PR?TOUCHYREADSLIDERRELATIVE?TOUCHY
   *DEL*:           000024H   BYTE   UNIT     CODE           ?PR?ANYSENSORSINGLEACTIVE?SENSOR_NODE_ROUTINES
   *DEL*:           000003H   BYTE   UNIT     DATA           ?DT?ANYSENSORSINGLEACTIVE?SENSOR_NODE_ROUTINES
   *DEL*:           00035CH   BYTE   UNIT     CODE           ?PR?PRINTF?PRINTF
   *DEL*:           000014H   BYTE   UNIT     DATA           ?DT?PRINTF?PRINTF
   *DEL*:           000001H.1 BIT    UNIT     BIT            ?BI?PRINTF?PRINTF
   *DEL*:           000027H   BYTE   UNIT     CODE           ?PR?PUTCHAR?PUTCHAR



OVERLAY MAP OF MODULE:   BOLDPORTTOUCHYAPIDEMO.OMF.CRBUILD (CSLIB_CONFIG)


FUNCTION/MODULE                               DATA_GROUP   IDATA_GROUP  XDATA_GROUP
--> CALLED FUNCTION/MODULE                    START  STOP  START  STOP  START  STOP
===================================================================================
?C_C51STARTUP                                 ----- -----  ----- -----  ----- -----
  +--> SILABS_STARTUP/INITDEVICE
  +--> MAIN/MAIN
  +--> ?C_INITSEG
LX51 LINKER/LOCATER V4.66.30.0                                                        07/11/2017  21:49:04  PAGE 7



SILABS_STARTUP/INITDEVICE                     ----- -----  ----- -----  ----- -----

MAIN/MAIN                                     ----- -----  ----- -----  ----- -----
  +--> ENTER_DEFAULTMODE_FROM_RESET/INITDEVICE
  +--> TICK_INIT/TICK
  +--> _TOUCHYSETLEDS/TOUCHY
  +--> _SIMPLEDELAY/MAIN
  +--> CSLIB_LOWPOWERUPDATE/LOW_POWER_ROUTINES
  +--> CSLIB_UPDATE/MASTER_ALGORITHM_CONFIG
  +--> TOUCHYBUTTONREFRESH/TOUCHY
  +--> TOUCHYSLEEPNOW/TOUCHY
  +--> TOUCHYSLEEPLEDS/TOUCHY
  +--> TOUCHYREADSLIDER/TOUCHY
  +--> _UPDATELED/MAIN
  +--> TOUCHYGETPRESSEDBUTTONS/TOUCHY
  +--> _TOUCHYLEDTOGGLE/TOUCHY
  +--> TOUCHYREADLEDS/TOUCHY
  +--> _TOUCHYREADLEDINTENSITY/TOUCHY
  +--> _TOUCHYLEDOFF/TOUCHY
  +--> _TOUCHYLEDON/TOUCHY

ENTER_DEFAULTMODE_FROM_RESET/INITDEVICE       001BH 001BH  ----- -----  ----- -----
  +--> PCA_0_ENTER_DEFAULTMODE_FROM_RESET/INITDEVICE
  +--> PCACH_0_ENTER_DEFAULTMODE_FROM_RESET/INITDEVICE
  +--> PCACH_1_ENTER_DEFAULTMODE_FROM_RESET/INITDEVICE
  +--> PCACH_2_ENTER_DEFAULTMODE_FROM_RESET/INITDEVICE
  +--> PORTS_0_ENTER_DEFAULTMODE_FROM_RESET/INITDEVICE
  +--> PORTS_1_ENTER_DEFAULTMODE_FROM_RESET/INITDEVICE
  +--> PBCFG_0_ENTER_DEFAULTMODE_FROM_RESET/INITDEVICE
  +--> RTC_0_ENTER_DEFAULTMODE_FROM_RESET/INITDEVICE
  +--> CLOCK_0_ENTER_DEFAULTMODE_FROM_RESET/INITDEVICE
  +--> FLASH_0_ENTER_DEFAULTMODE_FROM_RESET/INITDEVICE
  +--> CSLIB_0_ENTER_DEFAULTMODE_FROM_RESET/INITDEVICE

PCA_0_ENTER_DEFAULTMODE_FROM_RESET/INITD+     ----- -----  ----- -----  ----- -----
... EVICE

PCACH_0_ENTER_DEFAULTMODE_FROM_RESET/INI+     ----- -----  ----- -----  ----- -----
... TDEVICE

PCACH_1_ENTER_DEFAULTMODE_FROM_RESET/INI+     ----- -----  ----- -----  ----- -----
... TDEVICE

PCACH_2_ENTER_DEFAULTMODE_FROM_RESET/INI+     ----- -----  ----- -----  ----- -----
... TDEVICE

PORTS_0_ENTER_DEFAULTMODE_FROM_RESET/INI+     ----- -----  ----- -----  ----- -----
... TDEVICE

PORTS_1_ENTER_DEFAULTMODE_FROM_RESET/INI+     ----- -----  ----- -----  ----- -----
... TDEVICE

PBCFG_0_ENTER_DEFAULTMODE_FROM_RESET/INI+     ----- -----  ----- -----  ----- -----
... TDEVICE

RTC_0_ENTER_DEFAULTMODE_FROM_RESET/INITD+     ----- -----  ----- -----  ----- -----
... EVICE

CLOCK_0_ENTER_DEFAULTMODE_FROM_RESET/INI+     ----- -----  ----- -----  ----- -----
... TDEVICE

LX51 LINKER/LOCATER V4.66.30.0                                                        07/11/2017  21:49:04  PAGE 8


FLASH_0_ENTER_DEFAULTMODE_FROM_RESET/INI+     ----- -----  ----- -----  ----- -----
... TDEVICE

CSLIB_0_ENTER_DEFAULTMODE_FROM_RESET/INI+     ----- -----  ----- -----  ----- -----
... TDEVICE
  +--> CSLIB_INITHARDWARE/MASTER_ALGORITHM_CONFIG
  +--> CSLIB_INITLIBRARY/MASTER_ALGORITHM_CONFIG

CSLIB_INITHARDWARE/MASTER_ALGORITHM_CONF+     ----- -----  ----- -----  ----- -----
... IG
  +--> CONFIGURESENSORFORACTIVEMODE/HARDWARE_ROUTINES
  +--> CONFIGURETIMERFORACTIVEMODE/LOW_POWER_CONFIG

CONFIGURESENSORFORACTIVEMODE/HARDWARE_RO+     ----- -----  ----- -----  ----- -----
... UTINES
  +--> CONFIGUREPORTSACTIVEMODE/HARDWARE_ROUTINES
  +--> CONFIGURECS0ACTIVEMODE/HARDWARE_ROUTINES

CONFIGUREPORTSACTIVEMODE/HARDWARE_ROUTIN+     ----- -----  ----- -----  ----- -----
... ES

CONFIGURECS0ACTIVEMODE/HARDWARE_ROUTINES      ----- -----  ----- -----  ----- -----

CONFIGURETIMERFORACTIVEMODE/LOW_POWER_CO+     ----- -----  ----- -----  ----- -----
... NFIG
  +--> CONFIGURERTCACTIVEMODE/LOW_POWER_CONFIG

CONFIGURERTCACTIVEMODE/LOW_POWER_CONFIG       ----- -----  ----- -----  ----- -----
  +--> LPM_INIT/LOW_POWER_CONFIG
  +--> RTC_INIT/LOW_POWER_CONFIG
  +--> _RTC_SETALARMPERIOD/LOW_POWER_CONFIG
  +--> _RTC0CN_SETBITS/LOW_POWER_CONFIG

LPM_INIT/LOW_POWER_CONFIG                     ----- -----  ----- -----  ----- -----

RTC_INIT/LOW_POWER_CONFIG                     001CH 001CH  ----- -----  ----- -----
  +--> _RTC_WRITE/LOW_POWER_CONFIG

_RTC_WRITE/LOW_POWER_CONFIG                   ----- -----  ----- -----  ----- -----

_RTC_SETALARMPERIOD/LOW_POWER_CONFIG          001CH 001DH  ----- -----  ----- -----
  +--> RTC_ZEROCURRENTTIME/LOW_POWER_CONFIG
  +--> _RTC_WRITEALARM/LOW_POWER_CONFIG

RTC_ZEROCURRENTTIME/LOW_POWER_CONFIG          ----- -----  ----- -----  ----- -----
  +--> _RTC_WRITE/LOW_POWER_CONFIG
  +--> _RTC_READ/LOW_POWER_CONFIG

_RTC_READ/LOW_POWER_CONFIG                    ----- -----  ----- -----  ----- -----

_RTC_WRITEALARM/LOW_POWER_CONFIG              001EH 0021H  ----- -----  ----- -----

_RTC0CN_SETBITS/LOW_POWER_CONFIG              ----- -----  ----- -----  ----- -----
  +--> _RTC_WRITE/LOW_POWER_CONFIG

CSLIB_INITLIBRARY/MASTER_ALGORITHM_CONFI+     ----- -----  ----- -----  ----- -----
... G
  +--> CSLIB_INITSENSORSTRUCT_TS/SENSOR_NODE_ROUTINES
  +--> INIT_SENSINGVARIABLES/MASTER_ALGORITHM_CONFIG
  +--> INIT_BASELINEROUTINES/BASELINE_ROUTINES
  +--> INIT_SCANNINGROUTINES/SCANNING_ROUTINES
  +--> INIT_DATASHAPINGROUTINES/DATA_SHAPING_ROUTINES
LX51 LINKER/LOCATER V4.66.30.0                                                        07/11/2017  21:49:04  PAGE 9


  +--> INIT_THRESHOLDROUTINES/THRESHOLD_ROUTINES
  +--> INIT_LOWPOWERROUTINES/LOW_POWER_ROUTINES
  +--> INIT_NOISEROUTINES/NOISE_ROUTINES

CSLIB_INITSENSORSTRUCT_TS/SENSOR_NODE_RO+     001CH 001CH  ----- -----  ----- -----
... UTINES
  +--> _CSLIB_RESETSENSORSTRUCT_T/SENSOR_NODE_ROUTINES

_CSLIB_RESETSENSORSTRUCT_T/SENSOR_NODE_R+     001DH 001DH  ----- -----  ----- -----
... OUTINES
  +--> SENSOR_NODE_ROUTINES
  +--> _NODEINIT/HARDWARE_ROUTINES

SENSOR_NODE_ROUTINES                          ----- -----  ----- -----  ----- -----

_NODEINIT/HARDWARE_ROUTINES                   ----- -----  ----- -----  ----- -----
  +--> ?CO?HARDWARE_CONFIG

?CO?HARDWARE_CONFIG                           ----- -----  ----- -----  ----- -----

INIT_SENSINGVARIABLES/MASTER_ALGORITHM_C+     ----- -----  ----- -----  ----- -----
... ONFIG

INIT_BASELINEROUTINES/BASELINE_ROUTINES       001CH 002BH  ----- -----  ----- -----
  +--> _SCANSENSOR/HARDWARE_ROUTINES
  +--> BASELINE_ROUTINES
  +--> _CSLIB_NODEPUSHRAW/SENSOR_NODE_ROUTINES
  +--> _CSLIB_NODEPUSHPROCESS/SENSOR_NODE_ROUTINES

_SCANSENSOR/HARDWARE_ROUTINES                 ----- -----  ----- -----  ----- -----
  +--> _SETMUX/HARDWARE_ROUTINES
  +--> _SETGAIN/HARDWARE_ROUTINES
  +--> _SETACCUMULATION/HARDWARE_ROUTINES
  +--> EXECUTECONVERSION/HARDWARE_ROUTINES

_SETMUX/HARDWARE_ROUTINES                     ----- -----  ----- -----  ----- -----

_SETGAIN/HARDWARE_ROUTINES                    ----- -----  ----- -----  ----- -----

_SETACCUMULATION/HARDWARE_ROUTINES            ----- -----  ----- -----  ----- -----

EXECUTECONVERSION/HARDWARE_ROUTINES           002CH 002DH  ----- -----  ----- -----

BASELINE_ROUTINES                             ----- -----  ----- -----  ----- -----

_CSLIB_NODEPUSHRAW/SENSOR_NODE_ROUTINES       ----- -----  00C0H 00C2H  ----- -----
  +--> SENSOR_NODE_ROUTINES

_CSLIB_NODEPUSHPROCESS/SENSOR_NODE_ROUTI+     002CH 002DH  00C0H 00C4H  ----- -----
... NES
  +--> SENSOR_NODE_ROUTINES

INIT_SCANNINGROUTINES/SCANNING_ROUTINES       ----- -----  ----- -----  ----- -----

INIT_DATASHAPINGROUTINES/DATA_SHAPING_RO+     001CH 001CH  ----- -----  ----- -----
... UTINES
  +--> ?CO?FILTER_CONFIG
  +--> DATA_SHAPING_ROUTINES

?CO?FILTER_CONFIG                             ----- -----  ----- -----  ----- -----
  +--> _THRESHOLDDETECT_PROCESSEDDATA/DATA_PROCESSING
  +--> _THRESHOLDDETECT_EXPONENTIALDATA/EXPONENTIAL_AVERAGING
LX51 LINKER/LOCATER V4.66.30.0                                                        07/11/2017  21:49:04  PAGE 10


  +--> UPDATEPROCESSDATA/DATA_PROCESSING
  +--> UPDATEEXPONENTIALAVERAGING/EXPONENTIAL_AVERAGING
  +--> INIT_PROCESSDATA/DATA_PROCESSING
  +--> INIT_EXPONENTIALAVERAGING/EXPONENTIAL_AVERAGING

_THRESHOLDDETECT_PROCESSEDDATA/DATA_PROC+     001DH 001DH  ----- -----  ----- -----
... ESSING
  +--> _CSLIB_NODEGETPROCESS/SENSOR_NODE_ROUTINES
  +--> _THRESHOLDUPDATE_WITHHYSTANDDEBOUNCE/THRESHOLD_ROUTINES

_CSLIB_NODEGETPROCESS/SENSOR_NODE_ROUTIN+     ----- -----  ----- -----  ----- -----
... ES
  +--> SENSOR_NODE_ROUTINES

_THRESHOLDUPDATE_WITHHYSTANDDEBOUNCE/THR+     001EH 001EH  00C0H 00CBH  ----- -----
... ESHOLD_ROUTINES
  +--> THRESHOLD_ROUTINES
  +--> _CSLIB_GETACTIVEDEBOUNCECOUNT/SENSOR_NODE_ROUTINES
  +--> _RESETACTIVEDEBOUNCECOUNT/SENSOR_NODE_ROUTINES
  +--> _INCREMENTACTIVEDEBOUNCECOUNT/SENSOR_NODE_ROUTINES
  +--> _RESETINACTIVEDEBOUNCECOUNT/SENSOR_NODE_ROUTINES
  +--> _INCREMENTINACTIVEDEBOUNCECOUNT/SENSOR_NODE_ROUTINES

THRESHOLD_ROUTINES                            ----- -----  ----- -----  ----- -----

_CSLIB_GETACTIVEDEBOUNCECOUNT/SENSOR_NOD+     ----- -----  ----- -----  ----- -----
... E_ROUTINES
  +--> SENSOR_NODE_ROUTINES

_RESETACTIVEDEBOUNCECOUNT/SENSOR_NODE_RO+     ----- -----  ----- -----  ----- -----
... UTINES
  +--> SENSOR_NODE_ROUTINES

_INCREMENTACTIVEDEBOUNCECOUNT/SENSOR_NOD+     ----- -----  ----- -----  ----- -----
... E_ROUTINES
  +--> SENSOR_NODE_ROUTINES

_RESETINACTIVEDEBOUNCECOUNT/SENSOR_NODE_+     ----- -----  ----- -----  ----- -----
... ROUTINES
  +--> SENSOR_NODE_ROUTINES

_INCREMENTINACTIVEDEBOUNCECOUNT/SENSOR_N+     ----- -----  ----- -----  ----- -----
... ODE_ROUTINES
  +--> SENSOR_NODE_ROUTINES

_THRESHOLDDETECT_EXPONENTIALDATA/EXPONEN+     ----- -----  ----- -----  ----- -----
... TIAL_AVERAGING
  +--> EXPONENTIAL_AVERAGING
  +--> _THRESHOLDUPDATE_WITHHYSTANDDEBOUNCE/THRESHOLD_ROUTINES

EXPONENTIAL_AVERAGING                         ----- -----  ----- -----  ----- -----

UPDATEPROCESSDATA/DATA_PROCESSING             ----- -----  00C0H 00C6H  ----- -----
  +--> DATA_PROCESSING
  +--> _CSLIB_NODEGETRAW/SENSOR_NODE_ROUTINES
  +--> _CSLIB_NODEOVERWRITEPROCESS/SENSOR_NODE_ROUTINES
  +--> _CSLIB_NODEGETPROCESS/SENSOR_NODE_ROUTINES

DATA_PROCESSING                               ----- -----  ----- -----  ----- -----

_CSLIB_NODEGETRAW/SENSOR_NODE_ROUTINES        001DH 001EH  ----- -----  ----- -----
  +--> SENSOR_NODE_ROUTINES
LX51 LINKER/LOCATER V4.66.30.0                                                        07/11/2017  21:49:04  PAGE 11



_CSLIB_NODEOVERWRITEPROCESS/SENSOR_NODE_+     ----- -----  ----- -----  ----- -----
... ROUTINES
  +--> SENSOR_NODE_ROUTINES

UPDATEEXPONENTIALAVERAGING/EXPONENTIAL_A+     ----- -----  ----- -----  00A2H 00AAH
... VERAGING
  +--> _CSLIB_NODEGETRAW/SENSOR_NODE_ROUTINES
  +--> EXPONENTIAL_AVERAGING
  +--> _CSLIB_GETUNPACKEDTOUCHDELTA/SENSOR_NODE_ROUTINES
  +--> _CSLIB_CHECKNOISEONCHANNEL/NOISE_ROUTINES

_CSLIB_GETUNPACKEDTOUCHDELTA/SENSOR_NODE+     ----- -----  ----- -----  ----- -----
... _ROUTINES
  +--> SENSOR_NODE_ROUTINES

_CSLIB_CHECKNOISEONCHANNEL/NOISE_ROUTINE+     001DH 001DH  ----- -----  ----- -----
... S

INIT_PROCESSDATA/DATA_PROCESSING              ----- -----  ----- -----  ----- -----
  +--> DATA_PROCESSING

INIT_EXPONENTIALAVERAGING/EXPONENTIAL_AV+     001DH 001DH  ----- -----  ----- -----
... ERAGING
  +--> _CSLIB_NODEGETPROCESS/SENSOR_NODE_ROUTINES
  +--> EXPONENTIAL_AVERAGING

DATA_SHAPING_ROUTINES                         ----- -----  ----- -----  ----- -----

INIT_THRESHOLDROUTINES/THRESHOLD_ROUTINE+     ----- -----  ----- -----  ----- -----
... S
  +--> THRESHOLD_ROUTINES

INIT_LOWPOWERROUTINES/LOW_POWER_ROUTINES      ----- -----  ----- -----  ----- -----

INIT_NOISEROUTINES/NOISE_ROUTINES             ----- -----  ----- -----  ----- -----

TICK_INIT/TICK                                ----- -----  ----- -----  ----- -----

_TOUCHYSETLEDS/TOUCHY                         ----- -----  ----- -----  ----- -----
  +--> TOUCHYLEDREFRESH/TOUCHY

TOUCHYLEDREFRESH/TOUCHY                       ----- -----  ----- -----  ----- -----

_SIMPLEDELAY/MAIN                             001BH 0022H  ----- -----  ----- -----

CSLIB_LOWPOWERUPDATE/LOW_POWER_ROUTINES       ----- -----  ----- -----  ----- -----
  +--> CHECKTIMER/LOW_POWER_CONFIG
  +--> CSLIB_ANYSENSORDEBOUNCEACTIVE/SENSOR_NODE_ROUTINES
  +--> CONFIGURETIMERFORSLEEPMODE/LOW_POWER_CONFIG
  +--> CONFIGURESENSORFORSLEEPMODE/LOW_POWER_CONFIG
  +--> INITSLEEPMODEBASELINE/LOW_POWER_ROUTINES
  +--> ENTERLOWPOWERSTATE/LOW_POWER_CONFIG
  +--> SLEEPMODESCANTICK/LOW_POWER_ROUTINES
  +--> CONFIGURETIMERFORACTIVEMODE/LOW_POWER_CONFIG
  +--> CONFIGURESENSORFORACTIVEMODE/HARDWARE_ROUTINES

CHECKTIMER/LOW_POWER_CONFIG                   ----- -----  ----- -----  ----- -----
  +--> UPDATERTCFLAGS/LOW_POWER_CONFIG

UPDATERTCFLAGS/LOW_POWER_CONFIG               ----- -----  ----- -----  ----- -----

LX51 LINKER/LOCATER V4.66.30.0                                                        07/11/2017  21:49:04  PAGE 12


CSLIB_ANYSENSORDEBOUNCEACTIVE/SENSOR_NOD+     001BH 001DH  ----- -----  ----- -----
... E_ROUTINES
  +--> _CSLIB_ISSENSORDEBOUNCEACTIVE/SENSOR_NODE_ROUTINES

_CSLIB_ISSENSORDEBOUNCEACTIVE/SENSOR_NOD+     ----- -----  ----- -----  ----- -----
... E_ROUTINES
  +--> SENSOR_NODE_ROUTINES

CONFIGURETIMERFORSLEEPMODE/LOW_POWER_CON+     ----- -----  ----- -----  ----- -----
... FIG
  +--> CONFIGURERTCSLEEPMODE/LOW_POWER_CONFIG

CONFIGURERTCSLEEPMODE/LOW_POWER_CONFIG        ----- -----  ----- -----  ----- -----
  +--> LPM_INIT/LOW_POWER_CONFIG
  +--> RTC_INIT/LOW_POWER_CONFIG
  +--> _RTC_SETALARMPERIOD/LOW_POWER_CONFIG
  +--> _RTC0CN_SETBITS/LOW_POWER_CONFIG

CONFIGURESENSORFORSLEEPMODE/LOW_POWER_CO+     ----- -----  ----- -----  ----- -----
... NFIG
  +--> CONFIGUREPORTSSLEEPMODE/LOW_POWER_CONFIG
  +--> CONFIGURECS0SLEEPMODE/LOW_POWER_CONFIG

CONFIGUREPORTSSLEEPMODE/LOW_POWER_CONFIG      ----- -----  ----- -----  ----- -----

CONFIGURECS0SLEEPMODE/LOW_POWER_CONFIG        ----- -----  ----- -----  ----- -----

INITSLEEPMODEBASELINE/LOW_POWER_ROUTINES      001BH 001FH  ----- -----  ----- -----
  +--> EXECUTECONVERSION/HARDWARE_ROUTINES

ENTERLOWPOWERSTATE/LOW_POWER_CONFIG           ----- -----  ----- -----  ----- -----
  +--> READYREGISTERSFORSLEEP/LOW_POWER_CONFIG
  +--> UPDATERTCFLAGS/LOW_POWER_CONFIG
  +--> RESTOREREGISTERSFROMSLEEP/LOW_POWER_CONFIG

READYREGISTERSFORSLEEP/LOW_POWER_CONFIG       ----- -----  ----- -----  ----- -----

RESTOREREGISTERSFROMSLEEP/LOW_POWER_CONF+     ----- -----  ----- -----  ----- -----
... IG

SLEEPMODESCANTICK/LOW_POWER_ROUTINES          001BH 001DH  ----- -----  ----- -----
  +--> EXECUTECONVERSION/HARDWARE_ROUTINES

CSLIB_UPDATE/MASTER_ALGORITHM_CONFIG          ----- -----  ----- -----  ----- -----
  +--> SCANALLSENSORS/SCANNING_ROUTINES
  +--> SHAPESCANNEDDATA/DATA_SHAPING_ROUTINES
  +--> UPDATETHRESHOLDS/THRESHOLD_ROUTINES
  +--> UPDATEALLNOISELEVELS/NOISE_ROUTINES
  +--> UPDATEALLTOUCHDELTAS/THRESHOLD_ROUTINES
  +--> UPDATEALLBASELINES/BASELINE_ROUTINES

SCANALLSENSORS/SCANNING_ROUTINES              ----- -----  00BDH 00BFH  ----- -----
  +--> _SCANSENSOR/HARDWARE_ROUTINES
  +--> _CSLIB_NODEPUSHRAW/SENSOR_NODE_ROUTINES
  +--> _CSLIB_NODEPUSHPROCESS/SENSOR_NODE_ROUTINES

SHAPESCANNEDDATA/DATA_SHAPING_ROUTINES        ----- -----  00BDH 00BDH  ----- -----
  +--> ?CO?FILTER_CONFIG
  +--> DATA_SHAPING_ROUTINES

UPDATETHRESHOLDS/THRESHOLD_ROUTINES           ----- -----  00BDH 00BFH  ----- -----
  +--> _CSLIB_CHECKNOISEONCHANNEL/NOISE_ROUTINES
LX51 LINKER/LOCATER V4.66.30.0                                                        07/11/2017  21:49:04  PAGE 13


  +--> ?CO?FILTER_CONFIG

UPDATEALLNOISELEVELS/NOISE_ROUTINES           ----- -----  00BDH 00C3H  ----- -----
  +--> _CSLIB_NODEGETRAW/SENSOR_NODE_ROUTINES
  +--> _CSLIB_GETUNPACKEDTOUCHDELTA/SENSOR_NODE_ROUTINES
  +--> NOISE_ROUTINES

NOISE_ROUTINES                                ----- -----  ----- -----  ----- -----

UPDATEALLTOUCHDELTAS/THRESHOLD_ROUTINES       ----- -----  ----- -----  ----- -----

UPDATEALLBASELINES/BASELINE_ROUTINES          001BH 001BH  ----- -----  ----- -----
  +--> _UPDATEBASELINE/BASELINE_ROUTINES

_UPDATEBASELINE/BASELINE_ROUTINES             001CH 001CH  00BDH 00C4H  ----- -----
  +--> BASELINE_ROUTINES
  +--> _CSLIB_ISSENSORSINGLEACTIVE/SENSOR_NODE_ROUTINES
  +--> _CSLIB_CHECKNOISEONCHANNEL/NOISE_ROUTINES
  +--> _CSLIB_NODEGETRAW/SENSOR_NODE_ROUTINES

_CSLIB_ISSENSORSINGLEACTIVE/SENSOR_NODE_+     ----- -----  ----- -----  ----- -----
... ROUTINES
  +--> SENSOR_NODE_ROUTINES

TOUCHYBUTTONREFRESH/TOUCHY                    ----- -----  ----- -----  ----- -----
  +--> _CSLIB_ISSENSORSINGLEACTIVE/SENSOR_NODE_ROUTINES
  +--> ISTOUCHQUALIFIED/CIRCLE_SLIDER
  +--> CALCULATEPOSITION/CIRCLE_SLIDER

ISTOUCHQUALIFIED/CIRCLE_SLIDER                001BH 001CH  ----- -----  ----- -----
  +--> _CSLIB_ISSENSORDEBOUNCEACTIVE/SENSOR_NODE_ROUTINES

CALCULATEPOSITION/CIRCLE_SLIDER               001BH 002AH  ----- -----  ----- -----
  +--> _NORMALIZEANGLE/CIRCLE_SLIDER

_NORMALIZEANGLE/CIRCLE_SLIDER                 ----- -----  ----- -----  ----- -----

TOUCHYSLEEPNOW/TOUCHY                         ----- -----  ----- -----  ----- -----

TOUCHYSLEEPLEDS/TOUCHY                        ----- -----  ----- -----  ----- -----

TOUCHYREADSLIDER/TOUCHY                       ----- -----  ----- -----  ----- -----

_UPDATELED/MAIN                               001BH 001BH  ----- -----  ----- -----
  +--> _TOUCHYSETLEDINTENSITY/TOUCHY

_TOUCHYSETLEDINTENSITY/TOUCHY                 ----- -----  ----- -----  ----- -----
  +--> TOUCHYLEDREFRESH/TOUCHY

TOUCHYGETPRESSEDBUTTONS/TOUCHY                ----- -----  ----- -----  ----- -----

_TOUCHYLEDTOGGLE/TOUCHY                       ----- -----  ----- -----  ----- -----
  +--> TOUCHYLEDREFRESH/TOUCHY

TOUCHYREADLEDS/TOUCHY                         ----- -----  ----- -----  ----- -----

_TOUCHYREADLEDINTENSITY/TOUCHY                ----- -----  ----- -----  ----- -----

_TOUCHYLEDOFF/TOUCHY                          ----- -----  ----- -----  ----- -----
  +--> TOUCHYLEDREFRESH/TOUCHY

_TOUCHYLEDON/TOUCHY                           ----- -----  ----- -----  ----- -----
LX51 LINKER/LOCATER V4.66.30.0                                                        07/11/2017  21:49:04  PAGE 14


  +--> TOUCHYLEDREFRESH/TOUCHY

?C_INITSEG                                    ----- -----  ----- -----  ----- -----
  +--> ?CO?PROFILER_INTERFACE

?CO?PROFILER_INTERFACE                        ----- -----  ----- -----  ----- -----

*** NEW ROOT ********************************

TIMER3_ISR/TICK                               ----- -----  ----- -----  ----- -----



PUBLIC SYMBOLS OF MODULE:  BOLDPORTTOUCHYAPIDEMO.OMF.CRBUILD (CSLIB_CONFIG)


      VALUE       CLASS    TYPE      PUBLIC SYMBOL NAME
      =================================================
*DEL*:00000000H   DATA     ---       ?_PRINTF517?BYTE
*DEL*:00000000H   DATA     ---       ?_PRINTF?BYTE
*DEL*:00000000H   DATA     ---       ?_SPRINTF517?BYTE
*DEL*:00000000H   DATA     ---       ?_SPRINTF?BYTE
      010004F6H   CODE     ---       ?C?CCASE
      010004A7H   CODE     ---       ?C?CLDOPTR
      0100048EH   CODE     ---       ?C?CLDPTR
      00000000H   NUMBER   ---       ?C?CODESEG
      01000146H   CODE     ---       ?C?COPY
      010004D4H   CODE     ---       ?C?CSTPTR
      0100045BH   CODE     ---       ?C?ICALL
      0100045FH   CODE     ---       ?C?ICALL2
      0100024CH   CODE     ---       ?C?IILDPTR
      010001D3H   CODE     ---       ?C?IILDX
      01000214H   CODE     ---       ?C?ILDOPTR
      010001E9H   CODE     ---       ?C?ILDPTR
      0100016CH   CODE     ---       ?C?IMUL
      010002A3H   CODE     ---       ?C?ISTOPTR
      01000284H   CODE     ---       ?C?ISTPTR
      01000461H   CODE     ---       ?C?LIMUL
      01000411H   CODE     ---       ?C?LLDIDATA0
      010002D0H   CODE     ---       ?C?LMUL
      010003FEH   CODE     ---       ?C?LSHL
      0100041EH   CODE     ---       ?C?LSTIDATA
      01000436H   CODE     ---       ?C?LSTKIDATA
      0100042AH   CODE     ---       ?C?LSTXDATA
      0100044FH   CODE     ---       ?C?OFFXADD
      010004E6H   CODE     ---       ?C?PLDIIDATA
      0100017EH   CODE     ---       ?C?UIDIV
      010003EDH   CODE     ---       ?C?ULCMP
      0100035BH   CODE     ---       ?C?ULDIV
      00000000H   NUMBER   ---       ?C?XDATASEG
      01000E3CH   CODE     ---       ?C_START
      01000000H   CODE     NEAR LAB  ?C_STARTUP
*DEL*:00000000H   DATA     BYTE      ?outputHeaderCount?BYTE
      0100142AH   CODE     ---       _CSLIB_checkNoiseOnChannel
      01001B40H   CODE     ---       _CSLIB_getActiveDebounceCount
      01001ABAH   CODE     ---       _CSLIB_getUnpackedTouchDelta
      01001AECH   CODE     ---       _CSLIB_isSensorDebounceActive
      01001AE0H   CODE     ---       _CSLIB_isSensorSingleActive
      010016DCH   CODE     ---       _CSLIB_nodeGetProcess
      01001360H   CODE     ---       _CSLIB_nodeGetRaw
      01001A6AH   CODE     ---       _CSLIB_nodeOverwriteProcess
      01000003H   CODE     ---       _CSLIB_nodePushProcess
LX51 LINKER/LOCATER V4.66.30.0                                                        07/11/2017  21:49:04  PAGE 15


      010011BAH   CODE     ---       _CSLIB_nodePushRaw
      01001312H   CODE     ---       _CSLIB_resetSensorStruct_t
      01001467H   CODE     ---       _IncrementActiveDebounceCount
      010015FAH   CODE     ---       _IncrementInactiveDebounceCount
      01001539H   CODE     ---       _nodeInit
      0100193FH   CODE     ---       _NormalizeAngle
*DEL*:00000062H   CODE     ---       _PRINTF
*DEL*:00000062H   CODE     ---       _PRINTF517
*DEL*:00000000H   CODE     ---       _printOutput
*DEL*:00000000H   CODE     ---       _printOutputDebAct
*DEL*:00000000H   CODE     ---       _printOutputSingAct
*DEL*:00000000H   CODE     ---       _printOutputTDelta
*DEL*:00000000H   CODE     ---       _PUTCHAR
      01001B51H   CODE     ---       _ResetActiveDebounceCount
      01001B49H   CODE     ---       _ResetInactiveDebounceCount
*DEL*:00000000H   CODE     ---       _RTC0CN_clearBits
      01001A5CH   CODE     ---       _RTC0CN_setBits
      01001B04H   CODE     ---       _RTC_read
      01001845H   CODE     ---       _RTC_setAlarmPeriod
*DEL*:00000000H   CODE     ---       _RTC_SetCurrentTime
      01001A54H   CODE     ---       _RTC_write
      010016B0H   CODE     ---       _RTC_writeAlarm
      01001657H   CODE     ---       _scanSensor
      01001B7BH   CODE     ---       _setAccumulation
      01001B75H   CODE     ---       _setGain
      01001BACH   CODE     ---       _setMux
      01001276H   CODE     ---       _SimpleDelay
*DEL*:0000005CH   CODE     ---       _SPRINTF
*DEL*:0000005CH   CODE     ---       _SPRINTF517
      01001A78H   CODE     ---       _ThresholdDetect_ExponentialData
      01001AF8H   CODE     ---       _ThresholdDetect_ProcessedData
      01000B5FH   CODE     ---       _ThresholdUpdate_WithHystAndDebounce
*DEL*:00000000H   CODE     ---       _Tick_Wait
      01001999H   CODE     ---       _TouchyLEDOff
      01001983H   CODE     ---       _TouchyLEDOn
      0100172DH   CODE     ---       _TouchyLEDToggle
      01001A1DH   CODE     ---       _TouchyReadLEDIntensity
      0100156AH   CODE     ---       _TouchySetLEDIntensity
      010018D9H   CODE     ---       _TouchySetLEDs
      010008CCH   CODE     ---       _UpdateBaseline
      0100159BH   CODE     ---       _UpdateLed
*SFR* 000000E0H   DATA     BYTE      ACC
*SFR* 000000E0H   DATA     BIT       ACC_ACC0
*SFR* 000000E0H.1 DATA     BIT       ACC_ACC1
*SFR* 000000E0H.2 DATA     BIT       ACC_ACC2
*SFR* 000000E0H.3 DATA     BIT       ACC_ACC3
*SFR* 000000E0H.4 DATA     BIT       ACC_ACC4
*SFR* 000000E0H.5 DATA     BIT       ACC_ACC5
*SFR* 000000E0H.6 DATA     BIT       ACC_ACC6
*SFR* 000000E0H.7 DATA     BIT       ACC_ACC7
*SFR* 000000BDH   DATA     WORD      ADC0
*SFR* 000000BAH   DATA     BYTE      ADC0AC
*SFR* 00000097H   DATA     BYTE      ADC0CF
*SFR* 000000E8H   DATA     BYTE      ADC0CN0
*SFR* 000000E8H.6 DATA     BIT       ADC0CN0_ADBMEN
*SFR* 000000E8H.4 DATA     BIT       ADC0CN0_ADBUSY
*SFR* 000000E8H   DATA     BIT       ADC0CN0_ADCM0
*SFR* 000000E8H.1 DATA     BIT       ADC0CN0_ADCM1
*SFR* 000000E8H.2 DATA     BIT       ADC0CN0_ADCM2
*SFR* 000000E8H.7 DATA     BIT       ADC0CN0_ADEN
*SFR* 000000E8H.5 DATA     BIT       ADC0CN0_ADINT
*SFR* 000000E8H.3 DATA     BIT       ADC0CN0_ADWINT
LX51 LINKER/LOCATER V4.66.30.0                                                        07/11/2017  21:49:04  PAGE 16


*SFR* 000000C3H   DATA     WORD      ADC0GT
*SFR* 000000C4H   DATA     BYTE      ADC0GTH
*SFR* 000000C3H   DATA     BYTE      ADC0GTL
*SFR* 000000BEH   DATA     BYTE      ADC0H
*SFR* 000000BDH   DATA     BYTE      ADC0L
*SFR* 000000C5H   DATA     WORD      ADC0LT
*SFR* 000000C6H   DATA     BYTE      ADC0LTH
*SFR* 000000C5H   DATA     BYTE      ADC0LTL
*SFR* 00000096H   DATA     BYTE      ADC0MX
*SFR* 000000BBH   DATA     BYTE      ADC0PWR
*SFR* 000000BCH   DATA     BYTE      ADC0TK
*DEL*:00000000H   CODE     ---       AnySensorSingleActive
*SFR* 000000F0H   DATA     BYTE      B
*SFR* 000000F0H   DATA     BIT       B_B0
*SFR* 000000F0H.1 DATA     BIT       B_B1
*SFR* 000000F0H.2 DATA     BIT       B_B2
*SFR* 000000F0H.3 DATA     BIT       B_B3
*SFR* 000000F0H.4 DATA     BIT       B_B4
*SFR* 000000F0H.5 DATA     BIT       B_B5
*SFR* 000000F0H.6 DATA     BIT       B_B6
*SFR* 000000F0H.7 DATA     BIT       B_B7
      0000008EH   IDATA    ---       bufferU16
      00000084H   IDATA    ---       bufferU8
*DEL*:00000000H   CODE     ---       calculateOffsets
      01000681H   CODE     ---       CalculatePosition
      01001A86H   CODE     ---       checkTimer
*SFR* 0000008EH   DATA     BYTE      CKCON0
*SFR* 000000A9H   DATA     BYTE      CLKSEL
      01001B2EH   CODE     ---       CLOCK_0_enter_DefaultMode_from_RESET
*SFR* 0000009BH   DATA     BYTE      CMP0CN0
*SFR* 0000009DH   DATA     BYTE      CMP0MD
*SFR* 0000009FH   DATA     BYTE      CMP0MX
      0000003AH   DATA     BYTE      Comp_wakeup
      01001826H   CODE     ---       configureCS0ActiveMode
      0100196DH   CODE     ---       configureCS0SleepMode
      01001755H   CODE     ---       configurePortsActiveMode
      01001A93H   CODE     ---       configurePortsSleepMode
      010019E7H   CODE     ---       configureRTCActiveMode
      010019D5H   CODE     ---       configureRTCSleepMode
      01001B81H   CODE     ---       configureSensorForActiveMode
      01001B87H   CODE     ---       configureSensorForSleepMode
      01001BAFH   CODE     ---       configureTimerForActiveMode
      01001BB2H   CODE     ---       configureTimerForSleepMode
*SFR* 0000009EH   DATA     BYTE      CRC0AUTO
*SFR* 00000084H   DATA     BYTE      CRC0CN0
*SFR* 0000009AH   DATA     BYTE      CRC0CNT
*SFR* 00000086H   DATA     BYTE      CRC0DAT
*SFR* 0000009CH   DATA     BYTE      CRC0FLIP
*SFR* 00000085H   DATA     BYTE      CRC0IN
*SFR* 000000AAH   DATA     BYTE      CS0CF
*SFR* 000000B0H   DATA     BYTE      CS0CN0
*SFR* 000000B0H.4 DATA     BIT       CS0CN0_CSBUSY
*SFR* 000000B0H.3 DATA     BIT       CS0CN0_CSCMPEN
*SFR* 000000B0H   DATA     BIT       CS0CN0_CSCMPF
*SFR* 000000B0H.7 DATA     BIT       CS0CN0_CSEN
*SFR* 000000B0H.6 DATA     BIT       CS0CN0_CSEOS
*SFR* 000000B0H.5 DATA     BIT       CS0CN0_CSINT
*SFR* 000000B0H.1 DATA     BIT       CS0CN0_CSPME
*SFR* 000000EEH   DATA     BYTE      CS0DH
*SFR* 000000EDH   DATA     BYTE      CS0DL
*SFR* 000000AFH   DATA     BYTE      CS0MD1
*SFR* 000000F3H   DATA     BYTE      CS0MD2
LX51 LINKER/LOCATER V4.66.30.0                                                        07/11/2017  21:49:04  PAGE 17


*SFR* 000000F3H   DATA     BYTE      CS0MD3
*SFR* 000000ABH   DATA     BYTE      CS0MX
*SFR* 000000DEH   DATA     BYTE      CS0PM
*SFR* 000000D2H   DATA     BYTE      CS0SCAN0
*SFR* 000000D3H   DATA     BYTE      CS0SCAN1
*SFR* 000000DEH   DATA     BYTE      CS0SE
*SFR* 000000DDH   DATA     BYTE      CS0SS
*SFR* 000000FEH   DATA     BYTE      CS0THH
*SFR* 000000FDH   DATA     BYTE      CS0THL
      01001B8DH   CODE     ---       CSLIB_0_enter_DefaultMode_from_RESET
      01001BCCH   CONST    ---       CSLIB_accumulationValues
      00000014H   DATA     WORD      CSLIB_activeModePeriod
      00000011H   DATA     WORD      CSLIB_activeSensorDelta
      0100177AH   CODE     ---       CSLIB_anySensorDebounceActive
      0000000FH   DATA     WORD      CSLIB_averageTouchDelta
      0000000EH   DATA     BYTE      CSLIB_buttonDebounce
*DEL*:00000000H   CODE     ---       CSLIB_commInit
*DEL*:00000000H   CODE     ---       CSLIB_commUpdate
      00000016H   DATA     WORD      CSLIB_countsBeforeSleep
      00000008H   DATA     BYTE      CSLIB_freeRunSetting
      01001BC3H   CONST    ---       CSLIB_gainValues
      0000000CH   DATA     WORD      CSLIB_inactiveSensorDelta
      01001B99H   CODE     ---       CSLIB_initHardware
      01001910H   CODE     ---       CSLIB_initLibrary
      01001956H   CODE     ---       CSLIB_initSensorStruct_ts
      01000C10H   CODE     ---       CSLIB_lowPowerUpdate
      01001BBAH   CONST    ---       CSLIB_muxValues
      02000000H   XDATA    ---       CSLIB_node
      0000000BH   DATA     BYTE      CSLIB_numSensors
      0000001AH   DATA     BYTE      CSLIB_sensorBufferSize
      00000009H   DATA     WORD      CSLIB_singleCSLIB_activeSensorDelta
      00000013H   DATA     BYTE      CSLIB_sleepModeEnable
      00000018H   DATA     WORD      CSLIB_sleepModePeriod
      000000D2H   IDATA    WORD      CSLIB_systemNoiseAverage
      000000CCH   IDATA    ---       CSLIB_systemNoiseAverage_internal
      000000A2H   IDATA    ---       CSLIB_techSpec
      01001A0BH   CODE     ---       CSLIB_update
      0100190AH   CODE     ---       DataShapingInit
      01001904H   CODE     ---       DataShapingUpdate
*SFR* 000000E3H   DATA     BYTE      DERIVID
*SFR* 00000082H   DATA     WORD      DP
*SFR* 00000083H   DATA     BYTE      DPH
*SFR* 00000082H   DATA     BYTE      DPL
*SFR* 000000E6H   DATA     BYTE      EIE1
*SFR* 000000E7H   DATA     BYTE      EIE2
*SFR* 000000F6H   DATA     BYTE      EIP1
*SFR* 000000F7H   DATA     BYTE      EIP2
      01001705H   CODE     ---       enter_DefaultMode_from_RESET
      01001928H   CODE     ---       enterLowPowerState
      010017C1H   CODE     ---       executeConversion
      000000E0H   IDATA    BYTE      exp_av_divider
      01001BA8H   CODE     ---       FLASH_0_enter_DefaultMode_from_RESET
*SFR* 000000B7H   DATA     BYTE      FLKEY
*SFR* 000000B6H   DATA     BYTE      FLSCL
*DEL*:00000000H   CODE     ---       getChar
*DEL*:00000000H   CODE     ---       getU16
*DEL*:00000000H   CODE     ---       getU8
      00000058H   IDATA    ---       headerEntries
*SFR* 000000B3H   DATA     BYTE      HFO0CAL
*SFR* 000000B2H   DATA     BYTE      HFO0CN
*DEL*:00000000H   CODE     ---       HFOSC_0_enter_DefaultMode_from_RESET
*SFR* 000000A8H   DATA     BYTE      IE
LX51 LINKER/LOCATER V4.66.30.0                                                        07/11/2017  21:49:04  PAGE 18


*SFR* 000000A8H.7 DATA     BIT       IE_EA
*SFR* 000000A8H.4 DATA     BIT       IE_ES0
*SFR* 000000A8H.6 DATA     BIT       IE_ESPI0
*SFR* 000000A8H.1 DATA     BIT       IE_ET0
*SFR* 000000A8H.3 DATA     BIT       IE_ET1
*SFR* 000000A8H.5 DATA     BIT       IE_ET2
*SFR* 000000A8H   DATA     BIT       IE_EX0
*SFR* 000000A8H.2 DATA     BIT       IE_EX1
      01000A95H   CODE     ---       Init_BaselineRoutines
      01001864H   CODE     ---       Init_DataShapingRoutines
      01001154H   CODE     ---       Init_ExponentialAveraging
      01001AADH   CODE     ---       Init_LowPowerRoutines
      01001B24H   CODE     ---       Init_NoiseRoutines
      010014D2H   CODE     ---       Init_ProcessData
      01001BB8H   CODE     ---       Init_ScanningRoutines
      01000072H   CODE     ---       Init_SensingVariables
      01001629H   CODE     ---       Init_ThresholdRoutines
      0100100AH   CODE     ---       InitSleepModeBaseline
*SFR* 000000B8H   DATA     BYTE      IP
*SFR* 000000B8H.4 DATA     BIT       IP_PS0
*SFR* 000000B8H.6 DATA     BIT       IP_PSPI0
*SFR* 000000B8H.1 DATA     BIT       IP_PT0
*SFR* 000000B8H.3 DATA     BIT       IP_PT1
*SFR* 000000B8H.5 DATA     BIT       IP_PT2
*SFR* 000000B8H   DATA     BIT       IP_PX0
*SFR* 000000B8H.2 DATA     BIT       IP_PX1
*SFR* 000000B9H   DATA     BYTE      IREF0CF
*SFR* 000000D6H   DATA     BYTE      IREF0CN0
      01000F0EH   CODE     ---       IsTouchQualified
*SFR* 000000E4H   DATA     BYTE      IT01CF
      000000DFH   IDATA    BYTE      Jitter
*SFR* 00000080H   DATA     BIT       LED1pin
*SFR* 000000A0H.7 DATA     BIT       LED2pin
*SFR* 00000090H.6 DATA     BIT       LED3pin
*SFR* 00000090H.7 DATA     BIT       LED4pin
*SFR* 00000090H   DATA     BIT       LED5pin
*SFR* 00000080H.7 DATA     BIT       LED6pin
      01001A3EH   CODE     ---       LPM_init
      01000E81H   CODE     ---       main
      000000D8H   IDATA    BYTE      mode
      00000046H   DATA     BYTE      needANewLine
      0000004DH   IDATA    ---       offsetArray
*DEL*:00000000H   CODE     ---       outputBeginHeader
*DEL*:00000000H   CODE     ---       outputBreak
*DEL*:00000000H   CODE     ---       outputHeaderCount
*DEL*:00000000H   CODE     ---       outputNewLine
*DEL*:00000000H   CODE     ---       outputsensorDescriptors
*SFR* 00000080H   DATA     BYTE      P0
*SFR* 00000080H   DATA     BIT       P0_B0
*SFR* 00000080H.1 DATA     BIT       P0_B1
*SFR* 00000080H.2 DATA     BIT       P0_B2
*SFR* 00000080H.3 DATA     BIT       P0_B3
*SFR* 00000080H.4 DATA     BIT       P0_B4
*SFR* 00000080H.5 DATA     BIT       P0_B5
*SFR* 00000080H.6 DATA     BIT       P0_B6
*SFR* 00000080H.7 DATA     BIT       P0_B7
*SFR* 00000099H   DATA     BYTE      P0DRV
*SFR* 000000C7H   DATA     BYTE      P0MASK
*SFR* 000000D7H   DATA     BYTE      P0MAT
*SFR* 000000F1H   DATA     BYTE      P0MDIN
*SFR* 000000A4H   DATA     BYTE      P0MDOUT
*SFR* 000000D4H   DATA     BYTE      P0SKIP
LX51 LINKER/LOCATER V4.66.30.0                                                        07/11/2017  21:49:04  PAGE 19


*SFR* 00000090H   DATA     BYTE      P1
*SFR* 00000090H   DATA     BIT       P1_B0
*SFR* 00000090H.1 DATA     BIT       P1_B1
*SFR* 00000090H.2 DATA     BIT       P1_B2
*SFR* 00000090H.3 DATA     BIT       P1_B3
*SFR* 00000090H.4 DATA     BIT       P1_B4
*SFR* 00000090H.5 DATA     BIT       P1_B5
*SFR* 00000090H.6 DATA     BIT       P1_B6
*SFR* 00000090H.7 DATA     BIT       P1_B7
*SFR* 0000009BH   DATA     BYTE      P1DRV
*SFR* 000000BFH   DATA     BYTE      P1MASK
*SFR* 000000CFH   DATA     BYTE      P1MAT
*SFR* 000000F2H   DATA     BYTE      P1MDIN
*SFR* 000000A5H   DATA     BYTE      P1MDOUT
*SFR* 000000D5H   DATA     BYTE      P1SKIP
*SFR* 000000A0H   DATA     BYTE      P2
*SFR* 000000A0H.7 DATA     BIT       P2_B7
*SFR* 0000009DH   DATA     BYTE      P2DRV
*SFR* 000000A6H   DATA     BYTE      P2MDOUT
      01001B1AH   CODE     ---       PBCFG_0_enter_DefaultMode_from_RESET
*SFR* 000000F9H   DATA     WORD      PCA0
*SFR* 000000D8H   DATA     BYTE      PCA0CN0
*SFR* 000000D8H   DATA     BIT       PCA0CN0_CCF0
*SFR* 000000D8H.1 DATA     BIT       PCA0CN0_CCF1
*SFR* 000000D8H.2 DATA     BIT       PCA0CN0_CCF2
*SFR* 000000D8H.7 DATA     BIT       PCA0CN0_CF
*SFR* 000000D8H.6 DATA     BIT       PCA0CN0_CR
*SFR* 000000FBH   DATA     WORD      PCA0CP0
*SFR* 000000E9H   DATA     WORD      PCA0CP1
*SFR* 000000EBH   DATA     WORD      PCA0CP2
*SFR* 000000FCH   DATA     BYTE      PCA0CPH0
*SFR* 000000EAH   DATA     BYTE      PCA0CPH1
*SFR* 000000ECH   DATA     BYTE      PCA0CPH2
*SFR* 000000FBH   DATA     BYTE      PCA0CPL0
*SFR* 000000E9H   DATA     BYTE      PCA0CPL1
*SFR* 000000EBH   DATA     BYTE      PCA0CPL2
*SFR* 000000DAH   DATA     BYTE      PCA0CPM0
*SFR* 000000DBH   DATA     BYTE      PCA0CPM1
*SFR* 000000DCH   DATA     BYTE      PCA0CPM2
*SFR* 000000FAH   DATA     BYTE      PCA0H
*SFR* 000000F9H   DATA     BYTE      PCA0L
*SFR* 000000D9H   DATA     BYTE      PCA0MD
*SFR* 000000DFH   DATA     BYTE      PCA0PWM
      01001AD4H   CODE     ---       PCA_0_enter_DefaultMode_from_RESET
      01001B67H   CODE     ---       PCACH_0_enter_DefaultMode_from_RESET
      01001B6EH   CODE     ---       PCACH_1_enter_DefaultMode_from_RESET
      01001B59H   CODE     ---       PCACH_2_enter_DefaultMode_from_RESET
*SFR* 00000087H   DATA     BYTE      PCON0
      0000003BH   DATA     BYTE      PM_wakeup
*SFR* 000000B5H   DATA     BYTE      PMU0CF
*SFR* 000000CEH   DATA     BYTE      PMU0FL
*SFR* 000000B5H   DATA     BYTE      PMU0MD
      0000003FH   DATA     BYTE      PMU_PMU0CFLocal
      01001B60H   CODE     ---       PORTS_0_enter_DefaultMode_from_RESET
      01001AA0H   CODE     ---       PORTS_1_enter_DefaultMode_from_RESET
*SFR* 000000A0H   DATA     BYTE      PPAGE_SFR
      00000040H   DATA     WORD      printBase
      00000042H   DATA     WORD      printCount
*DEL*:00000000H   CODE     ---       printHeader
      00000044H   DATA     WORD      printSize
*SFR* 0000008FH   DATA     BYTE      PSCTL
*SFR* 000000D0H   DATA     BYTE      PSW
LX51 LINKER/LOCATER V4.66.30.0                                                        07/11/2017  21:49:04  PAGE 20


*SFR* 000000D0H.6 DATA     BIT       PSW_AC
*SFR* 000000D0H.7 DATA     BIT       PSW_CY
*SFR* 000000D0H.5 DATA     BIT       PSW_F0
*SFR* 000000D0H.1 DATA     BIT       PSW_F1
*SFR* 000000D0H.2 DATA     BIT       PSW_OV
*SFR* 000000D0H   DATA     BIT       PSW_PARITY
*SFR* 000000D0H.3 DATA     BIT       PSW_RS0
*SFR* 000000D0H.4 DATA     BIT       PSW_RS1
*DEL*:00000000H   CODE     ---       readGain
*DEL*:00000000H   CODE     ---       readMux
      01001684H   CODE     ---       readyRegistersForSleep
*SFR* 000000D1H   DATA     BYTE      REF0CN
*SFR* 000000C9H   DATA     BYTE      REG0CN
      020000ABH   XDATA    ---       registerSaveState
      01001805H   CODE     ---       restoreRegistersFromSleep
*SFR* 000000E2H   DATA     BYTE      REVID
*SFR* 000000EFH   DATA     BYTE      RSTSRC
*SFR* 000000ACH   DATA     BYTE      RTC0ADR
*SFR* 000000ADH   DATA     BYTE      RTC0DAT
*SFR* 000000AEH   DATA     BYTE      RTC0KEY
      010017E3H   CODE     ---       RTC_0_enter_DefaultMode_from_RESET
      0000003DH   DATA     BYTE      RTC_alarm
      020000AFH   XDATA    WORD      RTC_clkFreq
      0000003CH   DATA     BYTE      RTC_failure
*DEL*:00000000H   CODE     ---       RTC_GetCurrentTime
      01001218H   CODE     ---       RTC_init
      0000003EH   DATA     BYTE      RTC_RTC0CNLocal
      010018A0H   CODE     ---       RTC_zeroCurrentTime
*SFR* 00000099H   DATA     BYTE      SBUF0
      01001506H   CODE     ---       ScanAllSensors
*SFR* 00000098H   DATA     BYTE      SCON0
*SFR* 00000098H.5 DATA     BIT       SCON0_MCE
*SFR* 00000098H.2 DATA     BIT       SCON0_RB8
*SFR* 00000098H.4 DATA     BIT       SCON0_REN
*SFR* 00000098H   DATA     BIT       SCON0_RI
*SFR* 00000098H.7 DATA     BIT       SCON0_SMODE
*SFR* 00000098H.3 DATA     BIT       SCON0_TB8
*SFR* 00000098H.1 DATA     BIT       SCON0_TI
      000000DBH   IDATA    ---       Scratch_buffer
      00000047H   DATA     BYTE      sendHeader
*DEL*:00000053H   CODE     ---       sensorDescriptors
*SFR* 000000A7H   DATA     BYTE      SFRPAGE
      0100179EH   CODE     ---       ShapeScannedData
      01001BA4H   CODE     ---       SiLabs_Startup
      000000D9H   IDATA    WORD      sleep_baseline
      000000D4H   IDATA    ---       sleep_scan_value
      01000CB7H   CODE     ---       SleepModeScanTick
*SFR* 000000F5H   DATA     BYTE      SMB0ADM
*SFR* 000000F4H   DATA     BYTE      SMB0ADR
*SFR* 000000C1H   DATA     BYTE      SMB0CF
*SFR* 000000C0H   DATA     BYTE      SMB0CN0
*SFR* 000000C0H.1 DATA     BIT       SMB0CN0_ACK
*SFR* 000000C0H.3 DATA     BIT       SMB0CN0_ACKRQ
*SFR* 000000C0H.2 DATA     BIT       SMB0CN0_ARBLOST
*SFR* 000000C0H.7 DATA     BIT       SMB0CN0_MASTER
*SFR* 000000C0H   DATA     BIT       SMB0CN0_SI
*SFR* 000000C0H.5 DATA     BIT       SMB0CN0_STA
*SFR* 000000C0H.4 DATA     BIT       SMB0CN0_STO
*SFR* 000000C0H.6 DATA     BIT       SMB0CN0_TXMODE
*SFR* 000000C2H   DATA     BYTE      SMB0DAT
*SFR* 00000081H   DATA     BYTE      SP
*SFR* 000000A1H   DATA     BYTE      SPI0CFG
LX51 LINKER/LOCATER V4.66.30.0                                                        07/11/2017  21:49:04  PAGE 21


*SFR* 000000A2H   DATA     BYTE      SPI0CKR
*SFR* 000000F8H   DATA     BYTE      SPI0CN0
*SFR* 000000F8H.5 DATA     BIT       SPI0CN0_MODF
*SFR* 000000F8H.2 DATA     BIT       SPI0CN0_NSSMD0
*SFR* 000000F8H.3 DATA     BIT       SPI0CN0_NSSMD1
*SFR* 000000F8H.4 DATA     BIT       SPI0CN0_RXOVRN
*SFR* 000000F8H   DATA     BIT       SPI0CN0_SPIEN
*SFR* 000000F8H.7 DATA     BIT       SPI0CN0_SPIF
*SFR* 000000F8H.1 DATA     BIT       SPI0CN0_TXBMT
*SFR* 000000F8H.6 DATA     BIT       SPI0CN0_WCOL
*SFR* 000000A3H   DATA     BYTE      SPI0DAT
      000000D0H   IDATA    WORD      system_noise
*SFR* 00000088H   DATA     BYTE      TCON
*SFR* 00000088H.1 DATA     BIT       TCON_IE0
*SFR* 00000088H.3 DATA     BIT       TCON_IE1
*SFR* 00000088H   DATA     BIT       TCON_IT0
*SFR* 00000088H.2 DATA     BIT       TCON_IT1
*SFR* 00000088H.5 DATA     BIT       TCON_TF0
*SFR* 00000088H.7 DATA     BIT       TCON_TF1
*SFR* 00000088H.4 DATA     BIT       TCON_TR0
*SFR* 00000088H.6 DATA     BIT       TCON_TR1
*SFR* 0000008CH   DATA     BYTE      TH0
*SFR* 0000008DH   DATA     BYTE      TH1
      010018F5H   CODE     ---       ThresholdNoiseMatrix
      010018BDH   CODE     ---       Tick_Init
*DEL*:00000000H   CODE     ---       TIMER01_0_enter_DefaultMode_from_RESET
*DEL*:00000000H   CODE     ---       TIMER16_3_enter_DefaultMode_from_RESET
      01001A2EH   CODE     ---       TIMER3_ISR
*DEL*:00000000H   CODE     ---       TIMER_SETUP_0_enter_DefaultMode_from_RESET
      020000B1H   XDATA    BYTE      timerTick
*SFR* 0000008AH   DATA     BYTE      TL0
*SFR* 0000008BH   DATA     BYTE      TL1
*SFR* 00000089H   DATA     BYTE      TMOD
*SFR* 000000CCH   DATA     WORD      TMR2
*SFR* 000000C8H   DATA     BYTE      TMR2CN0
*SFR* 000000C8H.3 DATA     BIT       TMR2CN0_T2SPLIT
*SFR* 000000C8H   DATA     BIT       TMR2CN0_T2XCLK0
*SFR* 000000C8H.1 DATA     BIT       TMR2CN0_T2XCLK1
*SFR* 000000C8H.4 DATA     BIT       TMR2CN0_TF2CEN
*SFR* 000000C8H.7 DATA     BIT       TMR2CN0_TF2H
*SFR* 000000C8H.6 DATA     BIT       TMR2CN0_TF2L
*SFR* 000000C8H.5 DATA     BIT       TMR2CN0_TF2LEN
*SFR* 000000C8H.2 DATA     BIT       TMR2CN0_TR2
*SFR* 000000CDH   DATA     BYTE      TMR2H
*SFR* 000000CCH   DATA     BYTE      TMR2L
*SFR* 000000CAH   DATA     WORD      TMR2RL
*SFR* 000000CBH   DATA     BYTE      TMR2RLH
*SFR* 000000CAH   DATA     BYTE      TMR2RLL
*SFR* 00000094H   DATA     WORD      TMR3
*SFR* 00000091H   DATA     BYTE      TMR3CN0
*SFR* 00000095H   DATA     BYTE      TMR3H
*SFR* 00000094H   DATA     BYTE      TMR3L
*SFR* 00000092H   DATA     WORD      TMR3RL
*SFR* 00000093H   DATA     BYTE      TMR3RLH
*SFR* 00000092H   DATA     BYTE      TMR3RLL
*SFR* 0000008EH   DATA     BYTE      TOFFH
*SFR* 0000008DH   DATA     BYTE      TOFFL
      01000F93H   CODE     ---       TouchyButtonRefresh
*DEL*:00000000H   CODE     ---       TouchyGetChangedButtons
      01001B93H   CODE     ---       TouchyGetPressedButtons
*DEL*:00000000H   CODE     ---       TouchyGetReleasedButtons
      010013EDH   CODE     ---       TouchyLEDRefresh
LX51 LINKER/LOCATER V4.66.30.0                                                        07/11/2017  21:49:04  PAGE 22


*DEL*:00000000H   CODE     ---       TouchyReadButtons
      01001BB5H   CODE     ---       TouchyReadLEDs
      01001B9FH   CODE     ---       TouchyReadSlider
*DEL*:00000000H   CODE     ---       TouchyReadSliderRelative
      010019F9H   CODE     ---       TouchySleepLEDs
      01001B0FH   CODE     ---       TouchySleepNow
*DEL*:00000000H   CODE     ---       UART0_init
      010019AEH   CODE     ---       UpdateAllBaselines
      010007D6H   CODE     ---       UpdateAllNoiseLevels
      01001BB9H   CODE     ---       UpdateAllTouchDeltas
      0100051CH   CODE     ---       UpdateExponentialAveraging
      010009B3H   CODE     ---       UpdateProcessData
      010015CBH   CODE     ---       updateRTCFlags
      010010EEH   CODE     ---       UpdateThresholds
*SFR* 000000FFH   DATA     BYTE      VDM0CN
*DEL*:00000000H   CODE     ---       VREG_0_enter_DefaultMode_from_RESET
*SFR* 000000E1H   DATA     BYTE      XBR0
*SFR* 000000E2H   DATA     BYTE      XBR1
*SFR* 000000E3H   DATA     BYTE      XBR2
*SFR* 000000B1H   DATA     BYTE      XOSC0CN



SYMBOL TABLE OF MODULE:  BOLDPORTTOUCHYAPIDEMO.OMF.CRBUILD (CSLIB_CONFIG)

      VALUE       REP       CLASS    TYPE      SYMBOL NAME
      ====================================================
      ---         MODULE    ---      ---       CSLIB_CONFIG
      02000000H   PUBLIC    XDATA    ---       CSLIB_node
      0000001AH   PUBLIC    DATA     BYTE      CSLIB_sensorBufferSize
      00000018H   PUBLIC    DATA     WORD      CSLIB_sleepModePeriod
      00000016H   PUBLIC    DATA     WORD      CSLIB_countsBeforeSleep
      00000014H   PUBLIC    DATA     WORD      CSLIB_activeModePeriod
      00000013H   PUBLIC    DATA     BYTE      CSLIB_sleepModeEnable
      00000011H   PUBLIC    DATA     WORD      CSLIB_activeSensorDelta
      0000000FH   PUBLIC    DATA     WORD      CSLIB_averageTouchDelta
      0000000EH   PUBLIC    DATA     BYTE      CSLIB_buttonDebounce
      0000000CH   PUBLIC    DATA     WORD      CSLIB_inactiveSensorDelta
      0000000BH   PUBLIC    DATA     BYTE      CSLIB_numSensors
      00000009H   PUBLIC    DATA     WORD      CSLIB_singleCSLIB_activeSensorDelta
      00000008H   PUBLIC    DATA     BYTE      CSLIB_freeRunSetting

      ---         MODULE    ---      ---       HARDWARE_CONFIG
      01001BCCH   PUBLIC    CONST    ---       CSLIB_accumulationValues
      01001BC3H   PUBLIC    CONST    ---       CSLIB_gainValues
      01001BBAH   PUBLIC    CONST    ---       CSLIB_muxValues

      ---         MODULE    ---      ---       HARDWARE_ROUTINES
      000000A2H   PUBLIC    IDATA    ---       CSLIB_techSpec
      01001539H   PUBLIC    CODE     ---       _nodeInit
      01001755H   PUBLIC    CODE     ---       configurePortsActiveMode
      01001826H   PUBLIC    CODE     ---       configureCS0ActiveMode
      01001657H   PUBLIC    CODE     ---       _scanSensor
      01001B81H   PUBLIC    CODE     ---       configureSensorForActiveMode
      010017C1H   PUBLIC    CODE     ---       executeConversion
      01001B7BH   PUBLIC    CODE     ---       _setAccumulation
      01001B75H   PUBLIC    CODE     ---       _setGain
      01001BACH   PUBLIC    CODE     ---       _setMux
      000000A2H   SFRSYM    DATA     BYTE      SPI0CKR
      00000080H   SFRSYM    DATA     BYTE      P0
      000000D0H.2 SFRSYM    DATA     BIT       PSW_OV
      000000B1H   SFRSYM    DATA     BYTE      XOSC0CN
LX51 LINKER/LOCATER V4.66.30.0                                                        07/11/2017  21:49:04  PAGE 23


      00000090H   SFRSYM    DATA     BYTE      P1
      000000A0H   SFRSYM    DATA     BYTE      P2
      00000097H   SFRSYM    DATA     BYTE      ADC0CF
      000000C0H.7 SFRSYM    DATA     BIT       SMB0CN0_MASTER
      000000F9H   SFRSYM    DATA     WORD      PCA0
      000000AEH   SFRSYM    DATA     BYTE      RTC0KEY
      000000E6H   SFRSYM    DATA     BYTE      EIE1
      000000C0H.1 SFRSYM    DATA     BIT       SMB0CN0_ACK
      000000E7H   SFRSYM    DATA     BYTE      EIE2
      0000008FH   SFRSYM    DATA     BYTE      PSCTL
      000000E4H   SFRSYM    DATA     BYTE      IT01CF
      000000B0H   SFRSYM    DATA     BYTE      CS0CN0
      000000C0H.6 SFRSYM    DATA     BIT       SMB0CN0_TXMODE
      000000E3H   SFRSYM    DATA     BYTE      DERIVID
      000000AFH   SFRSYM    DATA     BYTE      CS0MD1
      000000A7H   SFRSYM    DATA     BYTE      SFRPAGE
      000000F3H   SFRSYM    DATA     BYTE      CS0MD2
      000000A4H   SFRSYM    DATA     BYTE      P0MDOUT
      000000F3H   SFRSYM    DATA     BYTE      CS0MD3
      000000A5H   SFRSYM    DATA     BYTE      P1MDOUT
      000000E8H.5 SFRSYM    DATA     BIT       ADC0CN0_ADINT
      000000CBH   SFRSYM    DATA     BYTE      TMR2RLH
      000000A6H   SFRSYM    DATA     BYTE      P2MDOUT
      000000A8H   SFRSYM    DATA     BYTE      IE
      00000093H   SFRSYM    DATA     BYTE      TMR3RLH
      000000F6H   SFRSYM    DATA     BYTE      EIP1
      000000F7H   SFRSYM    DATA     BYTE      EIP2
      00000098H.2 SFRSYM    DATA     BIT       SCON0_RB8
      000000CAH   SFRSYM    DATA     BYTE      TMR2RLL
      000000FCH   SFRSYM    DATA     BYTE      PCA0CPH0
      00000092H   SFRSYM    DATA     BYTE      TMR3RLL
      000000EAH   SFRSYM    DATA     BYTE      PCA0CPH1
      00000098H.3 SFRSYM    DATA     BIT       SCON0_TB8
      000000B0H.7 SFRSYM    DATA     BIT       CS0CN0_CSEN
      000000F0H   SFRSYM    DATA     BIT       B_B0
      00000082H   SFRSYM    DATA     WORD      DP
      000000ECH   SFRSYM    DATA     BYTE      PCA0CPH2
      000000F0H.1 SFRSYM    DATA     BIT       B_B1
      000000C3H   SFRSYM    DATA     WORD      ADC0GT
      000000F0H.2 SFRSYM    DATA     BIT       B_B2
      000000FBH   SFRSYM    DATA     BYTE      PCA0CPL0
      000000F0H.3 SFRSYM    DATA     BIT       B_B3
      000000D9H   SFRSYM    DATA     BYTE      PCA0MD
      000000DAH   SFRSYM    DATA     BYTE      PCA0CPM0
      000000E9H   SFRSYM    DATA     BYTE      PCA0CPL1
      000000F0H.4 SFRSYM    DATA     BIT       B_B4
      000000DBH   SFRSYM    DATA     BYTE      PCA0CPM1
      000000EBH   SFRSYM    DATA     BYTE      PCA0CPL2
      000000F0H.5 SFRSYM    DATA     BIT       B_B5
      000000DCH   SFRSYM    DATA     BYTE      PCA0CPM2
      000000B8H   SFRSYM    DATA     BYTE      IP
      000000BCH   SFRSYM    DATA     BYTE      ADC0TK
      000000F0H.6 SFRSYM    DATA     BIT       B_B6
      000000C5H   SFRSYM    DATA     WORD      ADC0LT
      000000D6H   SFRSYM    DATA     BYTE      IREF0CN0
      00000098H.5 SFRSYM    DATA     BIT       SCON0_MCE
      000000F0H.7 SFRSYM    DATA     BIT       B_B7
      000000E1H   SFRSYM    DATA     BYTE      XBR0
      000000C1H   SFRSYM    DATA     BYTE      SMB0CF
      000000E2H   SFRSYM    DATA     BYTE      XBR1
      000000D2H   SFRSYM    DATA     BYTE      CS0SCAN0
      000000C0H.5 SFRSYM    DATA     BIT       SMB0CN0_STA
LX51 LINKER/LOCATER V4.66.30.0                                                        07/11/2017  21:49:04  PAGE 24


      000000E3H   SFRSYM    DATA     BYTE      XBR2
      000000D3H   SFRSYM    DATA     BYTE      CS0SCAN1
      00000096H   SFRSYM    DATA     BYTE      ADC0MX
      000000E0H   SFRSYM    DATA     BIT       ACC_ACC0
      000000D1H   SFRSYM    DATA     BYTE      REF0CN
      000000B2H   SFRSYM    DATA     BYTE      HFO0CN
      0000008EH   SFRSYM    DATA     BYTE      CKCON0
      000000E0H.1 SFRSYM    DATA     BIT       ACC_ACC1
      000000C9H   SFRSYM    DATA     BYTE      REG0CN
      00000085H   SFRSYM    DATA     BYTE      CRC0IN
      000000C8H.2 SFRSYM    DATA     BIT       TMR2CN0_TR2
      000000E0H.2 SFRSYM    DATA     BIT       ACC_ACC2
      000000E0H.3 SFRSYM    DATA     BIT       ACC_ACC3
      00000081H   SFRSYM    DATA     BYTE      SP
      0000009DH   SFRSYM    DATA     BYTE      CMP0MD
      000000E0H.4 SFRSYM    DATA     BIT       ACC_ACC4
      000000D8H   SFRSYM    DATA     BIT       PCA0CN0_CCF0
      000000E0H.5 SFRSYM    DATA     BIT       ACC_ACC5
      000000D8H.1 SFRSYM    DATA     BIT       PCA0CN0_CCF1
      000000E0H.6 SFRSYM    DATA     BIT       ACC_ACC6
      000000CCH   SFRSYM    DATA     WORD      TMR2
      000000D8H.2 SFRSYM    DATA     BIT       PCA0CN0_CCF2
      000000E0H.7 SFRSYM    DATA     BIT       ACC_ACC7
      00000094H   SFRSYM    DATA     WORD      TMR3
      000000B0H   SFRSYM    DATA     BIT       CS0CN0_CSCMPF
      000000C0H.3 SFRSYM    DATA     BIT       SMB0CN0_ACKRQ
      000000FFH   SFRSYM    DATA     BYTE      VDM0CN
      000000F1H   SFRSYM    DATA     BYTE      P0MDIN
      00000098H.4 SFRSYM    DATA     BIT       SCON0_REN
      000000F2H   SFRSYM    DATA     BYTE      P1MDIN
      000000FEH   SFRSYM    DATA     BYTE      CS0THH
      000000C0H.4 SFRSYM    DATA     BIT       SMB0CN0_STO
      000000B5H   SFRSYM    DATA     BYTE      PMU0CF
      000000C7H   SFRSYM    DATA     BYTE      P0MASK
      000000BFH   SFRSYM    DATA     BYTE      P1MASK
      000000FDH   SFRSYM    DATA     BYTE      CS0THL
      000000D0H.3 SFRSYM    DATA     BIT       PSW_RS0
      000000D8H.7 SFRSYM    DATA     BIT       PCA0CN0_CF
      000000F8H.4 SFRSYM    DATA     BIT       SPI0CN0_RXOVRN
      000000D0H.4 SFRSYM    DATA     BIT       PSW_RS1
      000000C8H   SFRSYM    DATA     BIT       TMR2CN0_T2XCLK0
      000000C8H.1 SFRSYM    DATA     BIT       TMR2CN0_T2XCLK1
      000000E8H.7 SFRSYM    DATA     BIT       ADC0CN0_ADEN
      00000089H   SFRSYM    DATA     BYTE      TMOD
      00000088H   SFRSYM    DATA     BYTE      TCON
      000000B5H   SFRSYM    DATA     BYTE      PMU0MD
      000000CEH   SFRSYM    DATA     BYTE      PMU0FL
      0000009CH   SFRSYM    DATA     BYTE      CRC0FLIP
      000000D0H   SFRSYM    DATA     BIT       PSW_PARITY
      000000A8H.4 SFRSYM    DATA     BIT       IE_ES0
      0000009FH   SFRSYM    DATA     BYTE      CMP0MX
      000000A8H.1 SFRSYM    DATA     BIT       IE_ET0
      000000A8H.3 SFRSYM    DATA     BIT       IE_ET1
      000000D4H   SFRSYM    DATA     BYTE      P0SKIP
      000000A8H.5 SFRSYM    DATA     BIT       IE_ET2
      000000D5H   SFRSYM    DATA     BYTE      P1SKIP
      000000E8H   SFRSYM    DATA     BYTE      ADC0CN0
      000000A8H   SFRSYM    DATA     BIT       IE_EX0
      000000D8H.6 SFRSYM    DATA     BIT       PCA0CN0_CR
      000000A8H.2 SFRSYM    DATA     BIT       IE_EX1
      00000098H.7 SFRSYM    DATA     BIT       SCON0_SMODE
      000000A9H   SFRSYM    DATA     BYTE      CLKSEL
LX51 LINKER/LOCATER V4.66.30.0                                                        07/11/2017  21:49:04  PAGE 25


      000000F8H   SFRSYM    DATA     BIT       SPI0CN0_SPIEN
      000000F0H   SFRSYM    DATA     BYTE      B
      000000BEH   SFRSYM    DATA     BYTE      ADC0H
      0000009EH   SFRSYM    DATA     BYTE      CRC0AUTO
      000000B0H.4 SFRSYM    DATA     BIT       CS0CN0_CSBUSY
      000000E8H.6 SFRSYM    DATA     BIT       ADC0CN0_ADBMEN
      000000CAH   SFRSYM    DATA     WORD      TMR2RL
      000000BDH   SFRSYM    DATA     BYTE      ADC0L
      00000092H   SFRSYM    DATA     WORD      TMR3RL
      000000D8H   SFRSYM    DATA     BYTE      PCA0CN0
      000000E0H   SFRSYM    DATA     BYTE      ACC
      000000FBH   SFRSYM    DATA     WORD      PCA0CP0
      000000E9H   SFRSYM    DATA     WORD      PCA0CP1
      000000EBH   SFRSYM    DATA     WORD      PCA0CP2
      00000084H   SFRSYM    DATA     BYTE      CRC0CN0
      0000008CH   SFRSYM    DATA     BYTE      TH0
      000000B8H.4 SFRSYM    DATA     BIT       IP_PS0
      0000008DH   SFRSYM    DATA     BYTE      TH1
      000000FAH   SFRSYM    DATA     BYTE      PCA0H
      000000B8H.1 SFRSYM    DATA     BIT       IP_PT0
      000000B8H.3 SFRSYM    DATA     BIT       IP_PT1
      000000C0H.2 SFRSYM    DATA     BIT       SMB0CN0_ARBLOST
      000000B8H.5 SFRSYM    DATA     BIT       IP_PT2
      0000008AH   SFRSYM    DATA     BYTE      TL0
      000000AAH   SFRSYM    DATA     BYTE      CS0CF
      000000F8H.1 SFRSYM    DATA     BIT       SPI0CN0_TXBMT
      000000D0H.5 SFRSYM    DATA     BIT       PSW_F0
      000000A8H.6 SFRSYM    DATA     BIT       IE_ESPI0
      0000008BH   SFRSYM    DATA     BYTE      TL1
      000000F9H   SFRSYM    DATA     BYTE      PCA0L
      000000C0H   SFRSYM    DATA     BIT       SMB0CN0_SI
      000000D0H.1 SFRSYM    DATA     BIT       PSW_F1
      00000080H   SFRSYM    DATA     BIT       P0_B0
      000000B8H   SFRSYM    DATA     BIT       IP_PX0
      00000090H   SFRSYM    DATA     BIT       P1_B0
      00000080H.1 SFRSYM    DATA     BIT       P0_B1
      000000B8H.2 SFRSYM    DATA     BIT       IP_PX1
      000000EEH   SFRSYM    DATA     BYTE      CS0DH
      0000009BH   SFRSYM    DATA     BYTE      CMP0CN0
      00000088H.1 SFRSYM    DATA     BIT       TCON_IE0
      00000090H.1 SFRSYM    DATA     BIT       P1_B1
      00000080H.2 SFRSYM    DATA     BIT       P0_B2
      00000088H.3 SFRSYM    DATA     BIT       TCON_IE1
      00000090H.2 SFRSYM    DATA     BIT       P1_B2
      00000080H.3 SFRSYM    DATA     BIT       P0_B3
      000000C0H   SFRSYM    DATA     BYTE      SMB0CN0
      00000090H.3 SFRSYM    DATA     BIT       P1_B3
      00000080H.4 SFRSYM    DATA     BIT       P0_B4
      00000090H.4 SFRSYM    DATA     BIT       P1_B4
      00000080H.5 SFRSYM    DATA     BIT       P0_B5
      000000EDH   SFRSYM    DATA     BYTE      CS0DL
      00000090H.5 SFRSYM    DATA     BIT       P1_B5
      00000080H.6 SFRSYM    DATA     BIT       P0_B6
      00000090H.6 SFRSYM    DATA     BIT       P1_B6
      00000080H.7 SFRSYM    DATA     BIT       P0_B7
      00000090H.7 SFRSYM    DATA     BIT       P1_B7
      000000A0H.7 SFRSYM    DATA     BIT       P2_B7
      00000083H   SFRSYM    DATA     BYTE      DPH
      000000C4H   SFRSYM    DATA     BYTE      ADC0GTH
      000000C8H.7 SFRSYM    DATA     BIT       TMR2CN0_TF2H
      000000C8H.3 SFRSYM    DATA     BIT       TMR2CN0_T2SPLIT
      000000D0H.6 SFRSYM    DATA     BIT       PSW_AC
LX51 LINKER/LOCATER V4.66.30.0                                                        07/11/2017  21:49:04  PAGE 26


      000000F8H   SFRSYM    DATA     BYTE      SPI0CN0
      000000B3H   SFRSYM    DATA     BYTE      HFO0CAL
      000000DEH   SFRSYM    DATA     BYTE      CS0SE
      00000088H.5 SFRSYM    DATA     BIT       TCON_TF0
      00000098H   SFRSYM    DATA     BIT       SCON0_RI
      00000082H   SFRSYM    DATA     BYTE      DPL
      00000088H.7 SFRSYM    DATA     BIT       TCON_TF1
      00000099H   SFRSYM    DATA     BYTE      SBUF0
      00000087H   SFRSYM    DATA     BYTE      PCON0
      000000B9H   SFRSYM    DATA     BYTE      IREF0CF
      000000C3H   SFRSYM    DATA     BYTE      ADC0GTL
      000000C8H.6 SFRSYM    DATA     BIT       TMR2CN0_TF2L
      00000098H.1 SFRSYM    DATA     BIT       SCON0_TI
      000000E8H   SFRSYM    DATA     BIT       ADC0CN0_ADCM0
      000000C6H   SFRSYM    DATA     BYTE      ADC0LTH
      00000088H   SFRSYM    DATA     BIT       TCON_IT0
      000000B0H.1 SFRSYM    DATA     BIT       CS0CN0_CSPME
      000000E8H.1 SFRSYM    DATA     BIT       ADC0CN0_ADCM1
      000000EFH   SFRSYM    DATA     BYTE      RSTSRC
      000000D7H   SFRSYM    DATA     BYTE      P0MAT
      00000086H   SFRSYM    DATA     BYTE      CRC0DAT
      00000088H.2 SFRSYM    DATA     BIT       TCON_IT1
      000000E8H.2 SFRSYM    DATA     BIT       ADC0CN0_ADCM2
      00000098H   SFRSYM    DATA     BYTE      SCON0
      000000CFH   SFRSYM    DATA     BYTE      P1MAT
      000000DEH   SFRSYM    DATA     BYTE      CS0PM
      000000E8H.3 SFRSYM    DATA     BIT       ADC0CN0_ADWINT
      000000E8H.4 SFRSYM    DATA     BIT       ADC0CN0_ADBUSY
      000000F5H   SFRSYM    DATA     BYTE      SMB0ADM
      000000C5H   SFRSYM    DATA     BYTE      ADC0LTL
      000000F8H.5 SFRSYM    DATA     BIT       SPI0CN0_MODF
      000000B8H.6 SFRSYM    DATA     BIT       IP_PSPI0
      000000B0H.6 SFRSYM    DATA     BIT       CS0CN0_CSEOS
      000000C8H   SFRSYM    DATA     BYTE      TMR2CN0
      00000091H   SFRSYM    DATA     BYTE      TMR3CN0
      000000F4H   SFRSYM    DATA     BYTE      SMB0ADR
      00000088H.4 SFRSYM    DATA     BIT       TCON_TR0
      000000B0H.5 SFRSYM    DATA     BIT       CS0CN0_CSINT
      000000ABH   SFRSYM    DATA     BYTE      CS0MX
      000000C8H.4 SFRSYM    DATA     BIT       TMR2CN0_TF2CEN
      00000088H.6 SFRSYM    DATA     BIT       TCON_TR1
      000000C2H   SFRSYM    DATA     BYTE      SMB0DAT
      00000099H   SFRSYM    DATA     BYTE      P0DRV
      000000DDH   SFRSYM    DATA     BYTE      CS0SS
      000000CDH   SFRSYM    DATA     BYTE      TMR2H
      000000A1H   SFRSYM    DATA     BYTE      SPI0CFG
      0000009BH   SFRSYM    DATA     BYTE      P1DRV
      00000095H   SFRSYM    DATA     BYTE      TMR3H
      0000009DH   SFRSYM    DATA     BYTE      P2DRV
      0000009AH   SFRSYM    DATA     BYTE      CRC0CNT
      000000CCH   SFRSYM    DATA     BYTE      TMR2L
      000000ACH   SFRSYM    DATA     BYTE      RTC0ADR
      000000F8H.7 SFRSYM    DATA     BIT       SPI0CN0_SPIF
      00000094H   SFRSYM    DATA     BYTE      TMR3L
      000000BBH   SFRSYM    DATA     BYTE      ADC0PWR
      000000A8H.7 SFRSYM    DATA     BIT       IE_EA
      000000ADH   SFRSYM    DATA     BYTE      RTC0DAT
      000000B0H.3 SFRSYM    DATA     BIT       CS0CN0_CSCMPEN
      000000B6H   SFRSYM    DATA     BYTE      FLSCL
      000000C8H.5 SFRSYM    DATA     BIT       TMR2CN0_TF2LEN
      000000F8H.6 SFRSYM    DATA     BIT       SPI0CN0_WCOL
      000000F8H.2 SFRSYM    DATA     BIT       SPI0CN0_NSSMD0
LX51 LINKER/LOCATER V4.66.30.0                                                        07/11/2017  21:49:04  PAGE 27


      000000D0H.7 SFRSYM    DATA     BIT       PSW_CY
      000000A3H   SFRSYM    DATA     BYTE      SPI0DAT
      000000F8H.3 SFRSYM    DATA     BIT       SPI0CN0_NSSMD1
      000000BDH   SFRSYM    DATA     WORD      ADC0
      0000008EH   SFRSYM    DATA     BYTE      TOFFH
      000000D0H   SFRSYM    DATA     BYTE      PSW
      000000DFH   SFRSYM    DATA     BYTE      PCA0PWM
      000000E2H   SFRSYM    DATA     BYTE      REVID
      0000008DH   SFRSYM    DATA     BYTE      TOFFL
      000000B7H   SFRSYM    DATA     BYTE      FLKEY
      000000BAH   SFRSYM    DATA     BYTE      ADC0AC

      01001BACH   BLOCK     CODE     ---       LVL=0
      00000007H   SYMBOL    DATA     BYTE      muxValue
      01001BACH   LINE      CODE     ---       #28
      01001BACH   LINE      CODE     ---       #29
      01001BACH   LINE      CODE     ---       #30
      01001BAEH   LINE      CODE     ---       #31
      ---         BLOCKEND  ---      ---       LVL=0

      01001B75H   BLOCK     CODE     ---       LVL=0
      00000007H   SYMBOL    DATA     BYTE      gainValue
      01001B75H   LINE      CODE     ---       #39
      01001B75H   LINE      CODE     ---       #40
      01001B75H   LINE      CODE     ---       #41
      01001B7AH   LINE      CODE     ---       #42
      ---         BLOCKEND  ---      ---       LVL=0

      01001B7BH   BLOCK     CODE     ---       LVL=0
      00000007H   SYMBOL    DATA     BYTE      accumulation
      01001B7BH   LINE      CODE     ---       #72
      01001B7BH   LINE      CODE     ---       #73
      01001B7BH   LINE      CODE     ---       #74
      01001B80H   LINE      CODE     ---       #75
      ---         BLOCKEND  ---      ---       LVL=0

      010017C1H   BLOCK     CODE     ---       LVL=0
      010017C1H   BLOCK     CODE     NEAR LAB  LVL=1
      0000002CH   SYMBOL    DATA     ---       scanResult
      ---         BLOCKEND  ---      ---       LVL=1
      010017C1H   LINE      CODE     ---       #89
      010017C1H   LINE      CODE     ---       #90
      010017C1H   LINE      CODE     ---       #94
      010017C4H   LINE      CODE     ---       #96
      010017C7H   LINE      CODE     ---       #98
      010017CAH   LINE      CODE     ---       #100
      010017CAH   LINE      CODE     ---       #101
      010017CAH   LINE      CODE     ---       #102
      010017CDH   LINE      CODE     ---       #103
      010017D0H   LINE      CODE     ---       #104
      010017D0H   LINE      CODE     ---       #106
      010017D5H   LINE      CODE     ---       #109
      010017D8H   LINE      CODE     ---       #110
      010017DBH   LINE      CODE     ---       #112
      010017DEH   LINE      CODE     ---       #114
      010017E2H   LINE      CODE     ---       #117
      ---         BLOCKEND  ---      ---       LVL=0

      01001B81H   BLOCK     CODE     ---       LVL=0
      01001B81H   LINE      CODE     ---       #129
      01001B81H   LINE      CODE     ---       #130
      01001B81H   LINE      CODE     ---       #131
LX51 LINKER/LOCATER V4.66.30.0                                                        07/11/2017  21:49:04  PAGE 28


      01001B84H   LINE      CODE     ---       #132
      ---         BLOCKEND  ---      ---       LVL=0

      01001657H   BLOCK     CODE     ---       LVL=0
      00000006H   SYMBOL    DATA     BYTE      nodeIndex
      01001657H   LINE      CODE     ---       #145
      01001659H   LINE      CODE     ---       #146
      01001659H   LINE      CODE     ---       #147
      01001666H   LINE      CODE     ---       #148
      01001673H   LINE      CODE     ---       #149
      01001680H   LINE      CODE     ---       #150
      01001683H   LINE      CODE     ---       #151
      ---         BLOCKEND  ---      ---       LVL=0

      01001826H   BLOCK     CODE     ---       LVL=0
      01001826H   LINE      CODE     ---       #168
      01001826H   LINE      CODE     ---       #169
      01001826H   LINE      CODE     ---       #171
      01001829H   LINE      CODE     ---       #172
      0100182CH   LINE      CODE     ---       #173
      0100182FH   LINE      CODE     ---       #174
      01001831H   LINE      CODE     ---       #175
      01001833H   LINE      CODE     ---       #177
      01001836H   LINE      CODE     ---       #179
      01001839H   LINE      CODE     ---       #181
      0100183CH   LINE      CODE     ---       #182
      01001841H   LINE      CODE     ---       #184
      01001844H   LINE      CODE     ---       #186
      ---         BLOCKEND  ---      ---       LVL=0

      01001755H   BLOCK     CODE     ---       LVL=0
      01001755H   LINE      CODE     ---       #196
      01001755H   LINE      CODE     ---       #197
      01001755H   LINE      CODE     ---       #198
      01001758H   LINE      CODE     ---       #199
      0100175BH   LINE      CODE     ---       #201
      0100175EH   LINE      CODE     ---       #202
      01001761H   LINE      CODE     ---       #203
      01001764H   LINE      CODE     ---       #204
      01001767H   LINE      CODE     ---       #205
      0100176AH   LINE      CODE     ---       #207
      0100176DH   LINE      CODE     ---       #208
      01001770H   LINE      CODE     ---       #209
      01001773H   LINE      CODE     ---       #210
      01001776H   LINE      CODE     ---       #211
      01001779H   LINE      CODE     ---       #214
      ---         BLOCKEND  ---      ---       LVL=0

      01001539H   BLOCK     CODE     ---       LVL=0
      00000007H   SYMBOL    DATA     BYTE      sensorIndex
      01001539H   LINE      CODE     ---       #218
      01001539H   LINE      CODE     ---       #219
      01001539H   LINE      CODE     ---       #220
      01001549H   LINE      CODE     ---       #221
      01001559H   LINE      CODE     ---       #222
      01001569H   LINE      CODE     ---       #223
      ---         BLOCKEND  ---      ---       LVL=0

      ---         MODULE    ---      ---       LOW_POWER_CONFIG
      0000003FH   PUBLIC    DATA     BYTE      PMU_PMU0CFLocal
      0000003EH   PUBLIC    DATA     BYTE      RTC_RTC0CNLocal
      0000003DH   PUBLIC    DATA     BYTE      RTC_alarm
LX51 LINKER/LOCATER V4.66.30.0                                                        07/11/2017  21:49:04  PAGE 29


      0000003CH   PUBLIC    DATA     BYTE      RTC_failure
      020000B1H   PUBLIC    XDATA    BYTE      timerTick
      020000AFH   PUBLIC    XDATA    WORD      RTC_clkFreq
      0000003BH   PUBLIC    DATA     BYTE      PM_wakeup
      0000003AH   PUBLIC    DATA     BYTE      Comp_wakeup
      020000ABH   PUBLIC    XDATA    ---       registerSaveState
      010018A0H   PUBLIC    CODE     ---       RTC_zeroCurrentTime
      01001845H   PUBLIC    CODE     ---       _RTC_setAlarmPeriod
      01001A5CH   PUBLIC    CODE     ---       _RTC0CN_setBits
      010016B0H   PUBLIC    CODE     ---       _RTC_writeAlarm
      01001A54H   PUBLIC    CODE     ---       _RTC_write
      01001B04H   PUBLIC    CODE     ---       _RTC_read
      01001218H   PUBLIC    CODE     ---       RTC_init
      01001A3EH   PUBLIC    CODE     ---       LPM_init
      010015CBH   PUBLIC    CODE     ---       updateRTCFlags
      010019E7H   PUBLIC    CODE     ---       configureRTCActiveMode
      010019D5H   PUBLIC    CODE     ---       configureRTCSleepMode
      0100196DH   PUBLIC    CODE     ---       configureCS0SleepMode
      01001A93H   PUBLIC    CODE     ---       configurePortsSleepMode
      01001BB2H   PUBLIC    CODE     ---       configureTimerForSleepMode
      01001B87H   PUBLIC    CODE     ---       configureSensorForSleepMode
      01001A86H   PUBLIC    CODE     ---       checkTimer
      01001BAFH   PUBLIC    CODE     ---       configureTimerForActiveMode
      01001928H   PUBLIC    CODE     ---       enterLowPowerState
      01001805H   PUBLIC    CODE     ---       restoreRegistersFromSleep
      01001684H   PUBLIC    CODE     ---       readyRegistersForSleep
      000000A2H   SFRSYM    DATA     BYTE      SPI0CKR
      00000080H   SFRSYM    DATA     BYTE      P0
      000000D0H.2 SFRSYM    DATA     BIT       PSW_OV
      000000B1H   SFRSYM    DATA     BYTE      XOSC0CN
      00000090H   SFRSYM    DATA     BYTE      P1
      000000A0H   SFRSYM    DATA     BYTE      P2
      00000097H   SFRSYM    DATA     BYTE      ADC0CF
      000000C0H.7 SFRSYM    DATA     BIT       SMB0CN0_MASTER
      000000F9H   SFRSYM    DATA     WORD      PCA0
      000000AEH   SFRSYM    DATA     BYTE      RTC0KEY
      000000E6H   SFRSYM    DATA     BYTE      EIE1
      000000C0H.1 SFRSYM    DATA     BIT       SMB0CN0_ACK
      000000E7H   SFRSYM    DATA     BYTE      EIE2
      0000008FH   SFRSYM    DATA     BYTE      PSCTL
      000000E4H   SFRSYM    DATA     BYTE      IT01CF
      000000B0H   SFRSYM    DATA     BYTE      CS0CN0
      000000C0H.6 SFRSYM    DATA     BIT       SMB0CN0_TXMODE
      000000E3H   SFRSYM    DATA     BYTE      DERIVID
      000000AFH   SFRSYM    DATA     BYTE      CS0MD1
      000000A7H   SFRSYM    DATA     BYTE      SFRPAGE
      000000F3H   SFRSYM    DATA     BYTE      CS0MD2
      000000A4H   SFRSYM    DATA     BYTE      P0MDOUT
      000000F3H   SFRSYM    DATA     BYTE      CS0MD3
      000000A5H   SFRSYM    DATA     BYTE      P1MDOUT
      000000E8H.5 SFRSYM    DATA     BIT       ADC0CN0_ADINT
      000000CBH   SFRSYM    DATA     BYTE      TMR2RLH
      000000A6H   SFRSYM    DATA     BYTE      P2MDOUT
      000000A8H   SFRSYM    DATA     BYTE      IE
      00000093H   SFRSYM    DATA     BYTE      TMR3RLH
      000000F6H   SFRSYM    DATA     BYTE      EIP1
      000000F7H   SFRSYM    DATA     BYTE      EIP2
      00000098H.2 SFRSYM    DATA     BIT       SCON0_RB8
      000000CAH   SFRSYM    DATA     BYTE      TMR2RLL
      000000FCH   SFRSYM    DATA     BYTE      PCA0CPH0
      00000092H   SFRSYM    DATA     BYTE      TMR3RLL
      000000EAH   SFRSYM    DATA     BYTE      PCA0CPH1
LX51 LINKER/LOCATER V4.66.30.0                                                        07/11/2017  21:49:04  PAGE 30


      00000098H.3 SFRSYM    DATA     BIT       SCON0_TB8
      000000B0H.7 SFRSYM    DATA     BIT       CS0CN0_CSEN
      000000F0H   SFRSYM    DATA     BIT       B_B0
      00000082H   SFRSYM    DATA     WORD      DP
      000000ECH   SFRSYM    DATA     BYTE      PCA0CPH2
      000000F0H.1 SFRSYM    DATA     BIT       B_B1
      000000C3H   SFRSYM    DATA     WORD      ADC0GT
      000000F0H.2 SFRSYM    DATA     BIT       B_B2
      000000FBH   SFRSYM    DATA     BYTE      PCA0CPL0
      000000F0H.3 SFRSYM    DATA     BIT       B_B3
      000000D9H   SFRSYM    DATA     BYTE      PCA0MD
      000000DAH   SFRSYM    DATA     BYTE      PCA0CPM0
      000000E9H   SFRSYM    DATA     BYTE      PCA0CPL1
      000000F0H.4 SFRSYM    DATA     BIT       B_B4
      000000DBH   SFRSYM    DATA     BYTE      PCA0CPM1
      000000EBH   SFRSYM    DATA     BYTE      PCA0CPL2
      000000F0H.5 SFRSYM    DATA     BIT       B_B5
      000000DCH   SFRSYM    DATA     BYTE      PCA0CPM2
      000000B8H   SFRSYM    DATA     BYTE      IP
      000000BCH   SFRSYM    DATA     BYTE      ADC0TK
      000000F0H.6 SFRSYM    DATA     BIT       B_B6
      000000C5H   SFRSYM    DATA     WORD      ADC0LT
      000000D6H   SFRSYM    DATA     BYTE      IREF0CN0
      00000098H.5 SFRSYM    DATA     BIT       SCON0_MCE
      000000F0H.7 SFRSYM    DATA     BIT       B_B7
      000000E1H   SFRSYM    DATA     BYTE      XBR0
      000000C1H   SFRSYM    DATA     BYTE      SMB0CF
      000000E2H   SFRSYM    DATA     BYTE      XBR1
      000000D2H   SFRSYM    DATA     BYTE      CS0SCAN0
      000000C0H.5 SFRSYM    DATA     BIT       SMB0CN0_STA
      000000E3H   SFRSYM    DATA     BYTE      XBR2
      000000D3H   SFRSYM    DATA     BYTE      CS0SCAN1
      00000096H   SFRSYM    DATA     BYTE      ADC0MX
      000000E0H   SFRSYM    DATA     BIT       ACC_ACC0
      000000D1H   SFRSYM    DATA     BYTE      REF0CN
      000000B2H   SFRSYM    DATA     BYTE      HFO0CN
      0000008EH   SFRSYM    DATA     BYTE      CKCON0
      000000E0H.1 SFRSYM    DATA     BIT       ACC_ACC1
      000000C9H   SFRSYM    DATA     BYTE      REG0CN
      00000085H   SFRSYM    DATA     BYTE      CRC0IN
      000000C8H.2 SFRSYM    DATA     BIT       TMR2CN0_TR2
      000000E0H.2 SFRSYM    DATA     BIT       ACC_ACC2
      000000E0H.3 SFRSYM    DATA     BIT       ACC_ACC3
      00000081H   SFRSYM    DATA     BYTE      SP
      0000009DH   SFRSYM    DATA     BYTE      CMP0MD
      000000E0H.4 SFRSYM    DATA     BIT       ACC_ACC4
      000000D8H   SFRSYM    DATA     BIT       PCA0CN0_CCF0
      000000E0H.5 SFRSYM    DATA     BIT       ACC_ACC5
      000000D8H.1 SFRSYM    DATA     BIT       PCA0CN0_CCF1
      000000E0H.6 SFRSYM    DATA     BIT       ACC_ACC6
      000000CCH   SFRSYM    DATA     WORD      TMR2
      000000D8H.2 SFRSYM    DATA     BIT       PCA0CN0_CCF2
      000000E0H.7 SFRSYM    DATA     BIT       ACC_ACC7
      00000094H   SFRSYM    DATA     WORD      TMR3
      000000B0H   SFRSYM    DATA     BIT       CS0CN0_CSCMPF
      000000C0H.3 SFRSYM    DATA     BIT       SMB0CN0_ACKRQ
      000000FFH   SFRSYM    DATA     BYTE      VDM0CN
      000000F1H   SFRSYM    DATA     BYTE      P0MDIN
      00000098H.4 SFRSYM    DATA     BIT       SCON0_REN
      000000F2H   SFRSYM    DATA     BYTE      P1MDIN
      000000FEH   SFRSYM    DATA     BYTE      CS0THH
      000000C0H.4 SFRSYM    DATA     BIT       SMB0CN0_STO
LX51 LINKER/LOCATER V4.66.30.0                                                        07/11/2017  21:49:04  PAGE 31


      000000B5H   SFRSYM    DATA     BYTE      PMU0CF
      000000C7H   SFRSYM    DATA     BYTE      P0MASK
      000000BFH   SFRSYM    DATA     BYTE      P1MASK
      000000FDH   SFRSYM    DATA     BYTE      CS0THL
      000000D0H.3 SFRSYM    DATA     BIT       PSW_RS0
      000000D8H.7 SFRSYM    DATA     BIT       PCA0CN0_CF
      000000F8H.4 SFRSYM    DATA     BIT       SPI0CN0_RXOVRN
      000000D0H.4 SFRSYM    DATA     BIT       PSW_RS1
      000000C8H   SFRSYM    DATA     BIT       TMR2CN0_T2XCLK0
      000000C8H.1 SFRSYM    DATA     BIT       TMR2CN0_T2XCLK1
      000000E8H.7 SFRSYM    DATA     BIT       ADC0CN0_ADEN
      00000089H   SFRSYM    DATA     BYTE      TMOD
      00000088H   SFRSYM    DATA     BYTE      TCON
      000000B5H   SFRSYM    DATA     BYTE      PMU0MD
      000000CEH   SFRSYM    DATA     BYTE      PMU0FL
      0000009CH   SFRSYM    DATA     BYTE      CRC0FLIP
      000000D0H   SFRSYM    DATA     BIT       PSW_PARITY
      000000A8H.4 SFRSYM    DATA     BIT       IE_ES0
      0000009FH   SFRSYM    DATA     BYTE      CMP0MX
      000000A8H.1 SFRSYM    DATA     BIT       IE_ET0
      000000A8H.3 SFRSYM    DATA     BIT       IE_ET1
      000000D4H   SFRSYM    DATA     BYTE      P0SKIP
      000000A8H.5 SFRSYM    DATA     BIT       IE_ET2
      000000D5H   SFRSYM    DATA     BYTE      P1SKIP
      000000E8H   SFRSYM    DATA     BYTE      ADC0CN0
      000000A8H   SFRSYM    DATA     BIT       IE_EX0
      000000D8H.6 SFRSYM    DATA     BIT       PCA0CN0_CR
      000000A8H.2 SFRSYM    DATA     BIT       IE_EX1
      00000098H.7 SFRSYM    DATA     BIT       SCON0_SMODE
      000000A9H   SFRSYM    DATA     BYTE      CLKSEL
      000000F8H   SFRSYM    DATA     BIT       SPI0CN0_SPIEN
      000000F0H   SFRSYM    DATA     BYTE      B
      000000BEH   SFRSYM    DATA     BYTE      ADC0H
      0000009EH   SFRSYM    DATA     BYTE      CRC0AUTO
      000000B0H.4 SFRSYM    DATA     BIT       CS0CN0_CSBUSY
      000000E8H.6 SFRSYM    DATA     BIT       ADC0CN0_ADBMEN
      000000CAH   SFRSYM    DATA     WORD      TMR2RL
      000000BDH   SFRSYM    DATA     BYTE      ADC0L
      00000092H   SFRSYM    DATA     WORD      TMR3RL
      000000D8H   SFRSYM    DATA     BYTE      PCA0CN0
      000000E0H   SFRSYM    DATA     BYTE      ACC
      000000FBH   SFRSYM    DATA     WORD      PCA0CP0
      000000E9H   SFRSYM    DATA     WORD      PCA0CP1
      000000EBH   SFRSYM    DATA     WORD      PCA0CP2
      00000084H   SFRSYM    DATA     BYTE      CRC0CN0
      0000008CH   SFRSYM    DATA     BYTE      TH0
      000000B8H.4 SFRSYM    DATA     BIT       IP_PS0
      0000008DH   SFRSYM    DATA     BYTE      TH1
      000000FAH   SFRSYM    DATA     BYTE      PCA0H
      000000B8H.1 SFRSYM    DATA     BIT       IP_PT0
      000000B8H.3 SFRSYM    DATA     BIT       IP_PT1
      000000C0H.2 SFRSYM    DATA     BIT       SMB0CN0_ARBLOST
      000000B8H.5 SFRSYM    DATA     BIT       IP_PT2
      0000008AH   SFRSYM    DATA     BYTE      TL0
      000000AAH   SFRSYM    DATA     BYTE      CS0CF
      000000F8H.1 SFRSYM    DATA     BIT       SPI0CN0_TXBMT
      000000D0H.5 SFRSYM    DATA     BIT       PSW_F0
      000000A8H.6 SFRSYM    DATA     BIT       IE_ESPI0
      0000008BH   SFRSYM    DATA     BYTE      TL1
      000000F9H   SFRSYM    DATA     BYTE      PCA0L
      000000C0H   SFRSYM    DATA     BIT       SMB0CN0_SI
      000000D0H.1 SFRSYM    DATA     BIT       PSW_F1
LX51 LINKER/LOCATER V4.66.30.0                                                        07/11/2017  21:49:04  PAGE 32


      00000080H   SFRSYM    DATA     BIT       P0_B0
      000000B8H   SFRSYM    DATA     BIT       IP_PX0
      00000090H   SFRSYM    DATA     BIT       P1_B0
      00000080H.1 SFRSYM    DATA     BIT       P0_B1
      000000B8H.2 SFRSYM    DATA     BIT       IP_PX1
      000000EEH   SFRSYM    DATA     BYTE      CS0DH
      0000009BH   SFRSYM    DATA     BYTE      CMP0CN0
      00000088H.1 SFRSYM    DATA     BIT       TCON_IE0
      00000090H.1 SFRSYM    DATA     BIT       P1_B1
      00000080H.2 SFRSYM    DATA     BIT       P0_B2
      00000088H.3 SFRSYM    DATA     BIT       TCON_IE1
      00000090H.2 SFRSYM    DATA     BIT       P1_B2
      00000080H.3 SFRSYM    DATA     BIT       P0_B3
      000000C0H   SFRSYM    DATA     BYTE      SMB0CN0
      00000090H.3 SFRSYM    DATA     BIT       P1_B3
      00000080H.4 SFRSYM    DATA     BIT       P0_B4
      00000090H.4 SFRSYM    DATA     BIT       P1_B4
      00000080H.5 SFRSYM    DATA     BIT       P0_B5
      000000EDH   SFRSYM    DATA     BYTE      CS0DL
      00000090H.5 SFRSYM    DATA     BIT       P1_B5
      00000080H.6 SFRSYM    DATA     BIT       P0_B6
      00000090H.6 SFRSYM    DATA     BIT       P1_B6
      00000080H.7 SFRSYM    DATA     BIT       P0_B7
      00000090H.7 SFRSYM    DATA     BIT       P1_B7
      000000A0H.7 SFRSYM    DATA     BIT       P2_B7
      00000083H   SFRSYM    DATA     BYTE      DPH
      000000C4H   SFRSYM    DATA     BYTE      ADC0GTH
      000000C8H.7 SFRSYM    DATA     BIT       TMR2CN0_TF2H
      000000C8H.3 SFRSYM    DATA     BIT       TMR2CN0_T2SPLIT
      000000D0H.6 SFRSYM    DATA     BIT       PSW_AC
      000000F8H   SFRSYM    DATA     BYTE      SPI0CN0
      000000B3H   SFRSYM    DATA     BYTE      HFO0CAL
      000000DEH   SFRSYM    DATA     BYTE      CS0SE
      00000088H.5 SFRSYM    DATA     BIT       TCON_TF0
      00000098H   SFRSYM    DATA     BIT       SCON0_RI
      00000082H   SFRSYM    DATA     BYTE      DPL
      00000088H.7 SFRSYM    DATA     BIT       TCON_TF1
      00000099H   SFRSYM    DATA     BYTE      SBUF0
      00000087H   SFRSYM    DATA     BYTE      PCON0
      000000B9H   SFRSYM    DATA     BYTE      IREF0CF
      000000C3H   SFRSYM    DATA     BYTE      ADC0GTL
      000000C8H.6 SFRSYM    DATA     BIT       TMR2CN0_TF2L
      00000098H.1 SFRSYM    DATA     BIT       SCON0_TI
      000000E8H   SFRSYM    DATA     BIT       ADC0CN0_ADCM0
      000000C6H   SFRSYM    DATA     BYTE      ADC0LTH
      00000088H   SFRSYM    DATA     BIT       TCON_IT0
      000000B0H.1 SFRSYM    DATA     BIT       CS0CN0_CSPME
      000000E8H.1 SFRSYM    DATA     BIT       ADC0CN0_ADCM1
      000000EFH   SFRSYM    DATA     BYTE      RSTSRC
      000000D7H   SFRSYM    DATA     BYTE      P0MAT
      00000086H   SFRSYM    DATA     BYTE      CRC0DAT
      00000088H.2 SFRSYM    DATA     BIT       TCON_IT1
      000000E8H.2 SFRSYM    DATA     BIT       ADC0CN0_ADCM2
      00000098H   SFRSYM    DATA     BYTE      SCON0
      000000CFH   SFRSYM    DATA     BYTE      P1MAT
      000000DEH   SFRSYM    DATA     BYTE      CS0PM
      000000E8H.3 SFRSYM    DATA     BIT       ADC0CN0_ADWINT
      000000E8H.4 SFRSYM    DATA     BIT       ADC0CN0_ADBUSY
      000000F5H   SFRSYM    DATA     BYTE      SMB0ADM
      000000C5H   SFRSYM    DATA     BYTE      ADC0LTL
      000000F8H.5 SFRSYM    DATA     BIT       SPI0CN0_MODF
      000000B8H.6 SFRSYM    DATA     BIT       IP_PSPI0
LX51 LINKER/LOCATER V4.66.30.0                                                        07/11/2017  21:49:04  PAGE 33


      000000B0H.6 SFRSYM    DATA     BIT       CS0CN0_CSEOS
      000000C8H   SFRSYM    DATA     BYTE      TMR2CN0
      00000091H   SFRSYM    DATA     BYTE      TMR3CN0
      000000F4H   SFRSYM    DATA     BYTE      SMB0ADR
      00000088H.4 SFRSYM    DATA     BIT       TCON_TR0
      000000B0H.5 SFRSYM    DATA     BIT       CS0CN0_CSINT
      000000ABH   SFRSYM    DATA     BYTE      CS0MX
      000000C8H.4 SFRSYM    DATA     BIT       TMR2CN0_TF2CEN
      00000088H.6 SFRSYM    DATA     BIT       TCON_TR1
      000000C2H   SFRSYM    DATA     BYTE      SMB0DAT
      00000099H   SFRSYM    DATA     BYTE      P0DRV
      000000DDH   SFRSYM    DATA     BYTE      CS0SS
      000000CDH   SFRSYM    DATA     BYTE      TMR2H
      000000A1H   SFRSYM    DATA     BYTE      SPI0CFG
      0000009BH   SFRSYM    DATA     BYTE      P1DRV
      00000095H   SFRSYM    DATA     BYTE      TMR3H
      0000009DH   SFRSYM    DATA     BYTE      P2DRV
      0000009AH   SFRSYM    DATA     BYTE      CRC0CNT
      000000CCH   SFRSYM    DATA     BYTE      TMR2L
      000000ACH   SFRSYM    DATA     BYTE      RTC0ADR
      000000F8H.7 SFRSYM    DATA     BIT       SPI0CN0_SPIF
      00000094H   SFRSYM    DATA     BYTE      TMR3L
      000000BBH   SFRSYM    DATA     BYTE      ADC0PWR
      000000A8H.7 SFRSYM    DATA     BIT       IE_EA
      000000ADH   SFRSYM    DATA     BYTE      RTC0DAT
      000000B0H.3 SFRSYM    DATA     BIT       CS0CN0_CSCMPEN
      000000B6H   SFRSYM    DATA     BYTE      FLSCL
      000000C8H.5 SFRSYM    DATA     BIT       TMR2CN0_TF2LEN
      000000F8H.6 SFRSYM    DATA     BIT       SPI0CN0_WCOL
      000000F8H.2 SFRSYM    DATA     BIT       SPI0CN0_NSSMD0
      000000D0H.7 SFRSYM    DATA     BIT       PSW_CY
      000000A3H   SFRSYM    DATA     BYTE      SPI0DAT
      000000F8H.3 SFRSYM    DATA     BIT       SPI0CN0_NSSMD1
      000000BDH   SFRSYM    DATA     WORD      ADC0
      0000008EH   SFRSYM    DATA     BYTE      TOFFH
      000000D0H   SFRSYM    DATA     BYTE      PSW
      000000DFH   SFRSYM    DATA     BYTE      PCA0PWM
      000000E2H   SFRSYM    DATA     BYTE      REVID
      0000008DH   SFRSYM    DATA     BYTE      TOFFL
      000000B7H   SFRSYM    DATA     BYTE      FLKEY
      000000BAH   SFRSYM    DATA     BYTE      ADC0AC

      01001684H   BLOCK     CODE     ---       LVL=0
      01001684H   BLOCK     CODE     NEAR LAB  LVL=1
      00000007H   SYMBOL    DATA     BYTE      SFRPAGEsave
      ---         BLOCKEND  ---      ---       LVL=1
      01001684H   LINE      CODE     ---       #69
      01001684H   LINE      CODE     ---       #70
      01001684H   LINE      CODE     ---       #71
      01001686H   LINE      CODE     ---       #73
      01001689H   LINE      CODE     ---       #76
      0100168FH   LINE      CODE     ---       #77
      01001692H   LINE      CODE     ---       #78
      01001697H   LINE      CODE     ---       #80
      0100169DH   LINE      CODE     ---       #81
      010016A1H   LINE      CODE     ---       #82
      010016A5H   LINE      CODE     ---       #84
      010016A8H   LINE      CODE     ---       #85
      010016AAH   LINE      CODE     ---       #87
      010016ADH   LINE      CODE     ---       #89
      010016AFH   LINE      CODE     ---       #90
      ---         BLOCKEND  ---      ---       LVL=0
LX51 LINKER/LOCATER V4.66.30.0                                                        07/11/2017  21:49:04  PAGE 34



      01001805H   BLOCK     CODE     ---       LVL=0
      01001805H   BLOCK     CODE     NEAR LAB  LVL=1
      00000007H   SYMBOL    DATA     BYTE      SFRPAGEsave
      ---         BLOCKEND  ---      ---       LVL=1
      01001805H   LINE      CODE     ---       #91
      01001805H   LINE      CODE     ---       #92
      01001805H   LINE      CODE     ---       #93
      01001807H   LINE      CODE     ---       #94
      0100180AH   LINE      CODE     ---       #96
      01001810H   LINE      CODE     ---       #97
      01001815H   LINE      CODE     ---       #99
      0100181BH   LINE      CODE     ---       #100
      0100181FH   LINE      CODE     ---       #101
      01001823H   LINE      CODE     ---       #102
      01001825H   LINE      CODE     ---       #103
      ---         BLOCKEND  ---      ---       LVL=0

      01001928H   BLOCK     CODE     ---       LVL=0
      01001928H   LINE      CODE     ---       #110
      01001928H   LINE      CODE     ---       #111
      01001928H   LINE      CODE     ---       #112
      0100192BH   LINE      CODE     ---       #115
      0100192EH   LINE      CODE     ---       #120
      01001933H   LINE      CODE     ---       #122
      01001936H   LINE      CODE     ---       #126
      01001939H   LINE      CODE     ---       #128
      0100193CH   LINE      CODE     ---       #129
      ---         BLOCKEND  ---      ---       LVL=0

      01001BAFH   BLOCK     CODE     ---       LVL=0
      01001BAFH   LINE      CODE     ---       #143
      01001BAFH   LINE      CODE     ---       #144
      01001BAFH   LINE      CODE     ---       #145
      ---         BLOCKEND  ---      ---       LVL=0

      01001A86H   BLOCK     CODE     ---       LVL=0
      01001A86H   LINE      CODE     ---       #161
      01001A86H   LINE      CODE     ---       #162
      01001A86H   LINE      CODE     ---       #164
      01001A8CH   LINE      CODE     ---       #165
      01001A8CH   LINE      CODE     ---       #166
      01001A92H   LINE      CODE     ---       #167
      01001A92H   LINE      CODE     ---       #168
      ---         BLOCKEND  ---      ---       LVL=0

      01001B87H   BLOCK     CODE     ---       LVL=0
      01001B87H   LINE      CODE     ---       #178
      01001B87H   LINE      CODE     ---       #179
      01001B87H   LINE      CODE     ---       #180
      01001B8AH   LINE      CODE     ---       #181
      ---         BLOCKEND  ---      ---       LVL=0

      01001BB2H   BLOCK     CODE     ---       LVL=0
      01001BB2H   LINE      CODE     ---       #193
      01001BB2H   LINE      CODE     ---       #194
      01001BB2H   LINE      CODE     ---       #195
      ---         BLOCKEND  ---      ---       LVL=0

      01001A93H   BLOCK     CODE     ---       LVL=0
      01001A93H   LINE      CODE     ---       #206
      01001A93H   LINE      CODE     ---       #207
LX51 LINKER/LOCATER V4.66.30.0                                                        07/11/2017  21:49:04  PAGE 35


      01001A93H   LINE      CODE     ---       #208
      01001A96H   LINE      CODE     ---       #209
      01001A99H   LINE      CODE     ---       #210
      01001A9CH   LINE      CODE     ---       #211
      01001A9FH   LINE      CODE     ---       #212
      ---         BLOCKEND  ---      ---       LVL=0

      0100196DH   BLOCK     CODE     ---       LVL=0
      0100196DH   LINE      CODE     ---       #223
      0100196DH   LINE      CODE     ---       #224
      0100196DH   LINE      CODE     ---       #226
      01001970H   LINE      CODE     ---       #230
      01001973H   LINE      CODE     ---       #231
      01001976H   LINE      CODE     ---       #233
      01001979H   LINE      CODE     ---       #234
      0100197CH   LINE      CODE     ---       #235
      0100197FH   LINE      CODE     ---       #236
      01001982H   LINE      CODE     ---       #237
      ---         BLOCKEND  ---      ---       LVL=0

      010019D5H   BLOCK     CODE     ---       LVL=0
      010019D5H   LINE      CODE     ---       #247
      010019D5H   LINE      CODE     ---       #248
      010019D5H   LINE      CODE     ---       #249
      010019D8H   LINE      CODE     ---       #250
      010019DBH   LINE      CODE     ---       #252
      010019E2H   LINE      CODE     ---       #253
      ---         BLOCKEND  ---      ---       LVL=0

      010019E7H   BLOCK     CODE     ---       LVL=0
      010019E7H   LINE      CODE     ---       #263
      010019E7H   LINE      CODE     ---       #264
      010019E7H   LINE      CODE     ---       #265
      010019EAH   LINE      CODE     ---       #266
      010019EDH   LINE      CODE     ---       #268
      010019F4H   LINE      CODE     ---       #269
      ---         BLOCKEND  ---      ---       LVL=0

      010015CBH   BLOCK     CODE     ---       LVL=0
      010015CBH   BLOCK     CODE     NEAR LAB  LVL=1
      00000007H   SYMBOL    DATA     BYTE      PMU0CFstate
      00000007H   SYMBOL    DATA     BYTE      b
      ---         BLOCKEND  ---      ---       LVL=1
      010015CBH   LINE      CODE     ---       #282
      010015CBH   LINE      CODE     ---       #283
      010015CBH   LINE      CODE     ---       #285
      010015CDH   LINE      CODE     ---       #287
      010015D1H   LINE      CODE     ---       #288
      010015D1H   LINE      CODE     ---       #289
      010015D4H   LINE      CODE     ---       #290
      010015D4H   LINE      CODE     ---       #292
      010015D8H   LINE      CODE     ---       #293
      010015D8H   LINE      CODE     ---       #294
      010015DBH   LINE      CODE     ---       #295
      010015DBH   LINE      CODE     ---       #297
      010015DFH   LINE      CODE     ---       #298
      010015DFH   LINE      CODE     ---       #299
      010015E2H   LINE      CODE     ---       #300
      010015E2H   LINE      CODE     ---       #302
      010015E6H   LINE      CODE     ---       #303
      010015E6H   LINE      CODE     ---       #305
      010015E8H   LINE      CODE     ---       #306
LX51 LINKER/LOCATER V4.66.30.0                                                        07/11/2017  21:49:04  PAGE 36


      010015EAH   LINE      CODE     ---       #307
      010015EAH   LINE      CODE     ---       #309
      010015EDH   LINE      CODE     ---       #311
      010015F1H   LINE      CODE     ---       #312
      010015F1H   LINE      CODE     ---       #313
      010015F4H   LINE      CODE     ---       #314
      010015F7H   LINE      CODE     ---       #315
      010015F7H   LINE      CODE     ---       #317
      010015F7H   LINE      CODE     ---       #318
      010015F9H   LINE      CODE     ---       #319
      010015F9H   LINE      CODE     ---       #320
      ---         BLOCKEND  ---      ---       LVL=0

      01001A3EH   BLOCK     CODE     ---       LVL=0
      01001A3EH   LINE      CODE     ---       #331
      01001A3EH   LINE      CODE     ---       #332
      01001A3EH   LINE      CODE     ---       #333
      01001A41H   LINE      CODE     ---       #334
      01001A44H   LINE      CODE     ---       #335
      01001A46H   LINE      CODE     ---       #336
      01001A48H   LINE      CODE     ---       #337
      01001A4AH   LINE      CODE     ---       #338
      01001A4CH   LINE      CODE     ---       #339
      ---         BLOCKEND  ---      ---       LVL=0

      01001218H   BLOCK     CODE     ---       LVL=0
      01001218H   BLOCK     CODE     NEAR LAB  LVL=1
      00000006H   SYMBOL    DATA     WORD      i
      00000039H   SYMBOL    DATA     BYTE      configured
      0000001CH   SYMBOL    DATA     BYTE      CLKSEL_SAVE
      ---         BLOCKEND  ---      ---       LVL=1
      01001218H   LINE      CODE     ---       #351
      01001218H   LINE      CODE     ---       #352
      01001218H   LINE      CODE     ---       #356
      0100121BH   LINE      CODE     ---       #358
      0100121FH   LINE      CODE     ---       #361
      01001223H   LINE      CODE     ---       #362
      01001223H   LINE      CODE     ---       #363
      01001226H   LINE      CODE     ---       #364
      01001229H   LINE      CODE     ---       #365
      01001229H   LINE      CODE     ---       #387
      01001230H   LINE      CODE     ---       #390
      01001237H   LINE      CODE     ---       #394
      0100123EH   LINE      CODE     ---       #396
      01001241H   LINE      CODE     ---       #420
      01001248H   LINE      CODE     ---       #425
      01001255H   LINE      CODE     ---       #427
      0100125CH   LINE      CODE     ---       #429
      0100125FH   LINE      CODE     ---       #431
      01001262H   LINE      CODE     ---       #432
      01001267H   LINE      CODE     ---       #434
      0100126AH   LINE      CODE     ---       #435
      0100126DH   LINE      CODE     ---       #436
      ---         BLOCKEND  ---      ---       LVL=0

      01001B04H   BLOCK     CODE     ---       LVL=0
      00000007H   SYMBOL    DATA     BYTE      reg
      01001B04H   LINE      CODE     ---       #457
      01001B04H   LINE      CODE     ---       #458
      01001B04H   LINE      CODE     ---       #460
      01001B09H   LINE      CODE     ---       #463
      01001B0CH   LINE      CODE     ---       #465
LX51 LINKER/LOCATER V4.66.30.0                                                        07/11/2017  21:49:04  PAGE 37


      01001B0EH   LINE      CODE     ---       #466
      ---         BLOCKEND  ---      ---       LVL=0

      01001A4DH   BLOCK     CODE     ---       LVL=0
      ---         BLOCKEND  ---      ---       LVL=0

      01001A54H   BLOCK     CODE     ---       LVL=0
      00000007H   SYMBOL    DATA     BYTE      reg
      00000005H   SYMBOL    DATA     BYTE      value
      01001A54H   LINE      CODE     ---       #486
      01001A54H   LINE      CODE     ---       #487
      01001A54H   LINE      CODE     ---       #488
      01001A59H   LINE      CODE     ---       #489
      01001A5BH   LINE      CODE     ---       #490
      ---         BLOCKEND  ---      ---       LVL=0

      010016B0H   BLOCK     CODE     ---       LVL=0
      00000004H   SYMBOL    DATA     DWORD     alarm
      010016B0H   BLOCK     CODE     NEAR LAB  LVL=1
      0000001EH   SYMBOL    DATA     ---       alarm_value
      ---         BLOCKEND  ---      ---       LVL=1
      010016B0H   LINE      CODE     ---       #515
      010016B0H   LINE      CODE     ---       #516
      010016B0H   LINE      CODE     ---       #519
      010016B8H   LINE      CODE     ---       #522
      010016BBH   LINE      CODE     ---       #523
      010016C1H   LINE      CODE     ---       #524
      010016C2H   LINE      CODE     ---       #527
      010016C5H   LINE      CODE     ---       #528
      010016C8H   LINE      CODE     ---       #529
      010016C9H   LINE      CODE     ---       #530
      010016CCH   LINE      CODE     ---       #531
      010016CDH   LINE      CODE     ---       #532
      010016D0H   LINE      CODE     ---       #533
      010016D1H   LINE      CODE     ---       #534
      010016D4H   LINE      CODE     ---       #535
      010016D5H   LINE      CODE     ---       #538
      010016D8H   LINE      CODE     ---       #539
      010016DBH   LINE      CODE     ---       #540
      ---         BLOCKEND  ---      ---       LVL=0
      00000004H   SYMBOL    DATA     DWORD     time

      01001A5CH   BLOCK     CODE     ---       LVL=0
      00000007H   SYMBOL    DATA     BYTE      bits
      01001A5CH   LINE      CODE     ---       #643
      01001A5CH   LINE      CODE     ---       #644
      01001A5CH   LINE      CODE     ---       #645
      01001A61H   LINE      CODE     ---       #646
      ---         BLOCKEND  ---      ---       LVL=0
      00000007H   SYMBOL    DATA     BYTE      bits

      01001845H   BLOCK     CODE     ---       LVL=0
      0000001CH   SYMBOL    DATA     WORD      alarm_frequency
      01001845H   LINE      CODE     ---       #674
      01001849H   LINE      CODE     ---       #675
      01001849H   LINE      CODE     ---       #677
      0100184CH   LINE      CODE     ---       #678
      ---         BLOCKEND  ---      ---       LVL=0

      010018A0H   BLOCK     CODE     ---       LVL=0
      010018A0H   LINE      CODE     ---       #682
      010018A0H   LINE      CODE     ---       #683
LX51 LINKER/LOCATER V4.66.30.0                                                        07/11/2017  21:49:04  PAGE 38


      010018A0H   LINE      CODE     ---       #685
      010018A3H   LINE      CODE     ---       #686
      010018A6H   LINE      CODE     ---       #687
      010018A7H   LINE      CODE     ---       #688
      010018A9H   LINE      CODE     ---       #689
      010018AAH   LINE      CODE     ---       #690
      010018ACH   LINE      CODE     ---       #691
      010018ADH   LINE      CODE     ---       #692
      010018AFH   LINE      CODE     ---       #693
      010018B0H   LINE      CODE     ---       #695
      010018B3H   LINE      CODE     ---       #696
      010018BCH   LINE      CODE     ---       #697
      ---         BLOCKEND  ---      ---       LVL=0

      ---         MODULE    ---      ---       COMM_ROUTINES
      00000044H   PUBLIC    DATA     WORD      printSize
      00000042H   PUBLIC    DATA     WORD      printCount
      0000008EH   PUBLIC    IDATA    ---       bufferU16
      00000040H   PUBLIC    DATA     WORD      printBase
      00000084H   PUBLIC    IDATA    ---       bufferU8
      000000A2H   SFRSYM    DATA     BYTE      SPI0CKR
      00000080H   SFRSYM    DATA     BYTE      P0
      000000D0H.2 SFRSYM    DATA     BIT       PSW_OV
      000000B1H   SFRSYM    DATA     BYTE      XOSC0CN
      00000090H   SFRSYM    DATA     BYTE      P1
      000000A0H   SFRSYM    DATA     BYTE      P2
      00000097H   SFRSYM    DATA     BYTE      ADC0CF
      000000C0H.7 SFRSYM    DATA     BIT       SMB0CN0_MASTER
      000000F9H   SFRSYM    DATA     WORD      PCA0
      000000AEH   SFRSYM    DATA     BYTE      RTC0KEY
      000000E6H   SFRSYM    DATA     BYTE      EIE1
      000000C0H.1 SFRSYM    DATA     BIT       SMB0CN0_ACK
      000000E7H   SFRSYM    DATA     BYTE      EIE2
      0000008FH   SFRSYM    DATA     BYTE      PSCTL
      000000E4H   SFRSYM    DATA     BYTE      IT01CF
      000000B0H   SFRSYM    DATA     BYTE      CS0CN0
      000000C0H.6 SFRSYM    DATA     BIT       SMB0CN0_TXMODE
      000000E3H   SFRSYM    DATA     BYTE      DERIVID
      000000AFH   SFRSYM    DATA     BYTE      CS0MD1
      000000A7H   SFRSYM    DATA     BYTE      SFRPAGE
      000000F3H   SFRSYM    DATA     BYTE      CS0MD2
      000000A4H   SFRSYM    DATA     BYTE      P0MDOUT
      000000F3H   SFRSYM    DATA     BYTE      CS0MD3
      000000A5H   SFRSYM    DATA     BYTE      P1MDOUT
      000000E8H.5 SFRSYM    DATA     BIT       ADC0CN0_ADINT
      000000CBH   SFRSYM    DATA     BYTE      TMR2RLH
      000000A6H   SFRSYM    DATA     BYTE      P2MDOUT
      000000A8H   SFRSYM    DATA     BYTE      IE
      00000093H   SFRSYM    DATA     BYTE      TMR3RLH
      000000F6H   SFRSYM    DATA     BYTE      EIP1
      000000F7H   SFRSYM    DATA     BYTE      EIP2
      00000098H.2 SFRSYM    DATA     BIT       SCON0_RB8
      000000CAH   SFRSYM    DATA     BYTE      TMR2RLL
      000000FCH   SFRSYM    DATA     BYTE      PCA0CPH0
      00000092H   SFRSYM    DATA     BYTE      TMR3RLL
      000000EAH   SFRSYM    DATA     BYTE      PCA0CPH1
      00000098H.3 SFRSYM    DATA     BIT       SCON0_TB8
      000000B0H.7 SFRSYM    DATA     BIT       CS0CN0_CSEN
      000000F0H   SFRSYM    DATA     BIT       B_B0
      00000082H   SFRSYM    DATA     WORD      DP
      000000ECH   SFRSYM    DATA     BYTE      PCA0CPH2
      000000F0H.1 SFRSYM    DATA     BIT       B_B1
LX51 LINKER/LOCATER V4.66.30.0                                                        07/11/2017  21:49:04  PAGE 39


      000000C3H   SFRSYM    DATA     WORD      ADC0GT
      000000F0H.2 SFRSYM    DATA     BIT       B_B2
      000000FBH   SFRSYM    DATA     BYTE      PCA0CPL0
      000000F0H.3 SFRSYM    DATA     BIT       B_B3
      000000D9H   SFRSYM    DATA     BYTE      PCA0MD
      000000DAH   SFRSYM    DATA     BYTE      PCA0CPM0
      000000E9H   SFRSYM    DATA     BYTE      PCA0CPL1
      000000F0H.4 SFRSYM    DATA     BIT       B_B4
      000000DBH   SFRSYM    DATA     BYTE      PCA0CPM1
      000000EBH   SFRSYM    DATA     BYTE      PCA0CPL2
      000000F0H.5 SFRSYM    DATA     BIT       B_B5
      000000DCH   SFRSYM    DATA     BYTE      PCA0CPM2
      000000B8H   SFRSYM    DATA     BYTE      IP
      000000BCH   SFRSYM    DATA     BYTE      ADC0TK
      000000F0H.6 SFRSYM    DATA     BIT       B_B6
      000000C5H   SFRSYM    DATA     WORD      ADC0LT
      000000D6H   SFRSYM    DATA     BYTE      IREF0CN0
      00000098H.5 SFRSYM    DATA     BIT       SCON0_MCE
      000000F0H.7 SFRSYM    DATA     BIT       B_B7
      000000E1H   SFRSYM    DATA     BYTE      XBR0
      000000C1H   SFRSYM    DATA     BYTE      SMB0CF
      000000E2H   SFRSYM    DATA     BYTE      XBR1
      000000D2H   SFRSYM    DATA     BYTE      CS0SCAN0
      000000C0H.5 SFRSYM    DATA     BIT       SMB0CN0_STA
      000000E3H   SFRSYM    DATA     BYTE      XBR2
      000000D3H   SFRSYM    DATA     BYTE      CS0SCAN1
      00000096H   SFRSYM    DATA     BYTE      ADC0MX
      000000E0H   SFRSYM    DATA     BIT       ACC_ACC0
      000000D1H   SFRSYM    DATA     BYTE      REF0CN
      000000B2H   SFRSYM    DATA     BYTE      HFO0CN
      0000008EH   SFRSYM    DATA     BYTE      CKCON0
      000000E0H.1 SFRSYM    DATA     BIT       ACC_ACC1
      000000C9H   SFRSYM    DATA     BYTE      REG0CN
      00000085H   SFRSYM    DATA     BYTE      CRC0IN
      000000C8H.2 SFRSYM    DATA     BIT       TMR2CN0_TR2
      000000E0H.2 SFRSYM    DATA     BIT       ACC_ACC2
      000000E0H.3 SFRSYM    DATA     BIT       ACC_ACC3
      00000081H   SFRSYM    DATA     BYTE      SP
      0000009DH   SFRSYM    DATA     BYTE      CMP0MD
      000000E0H.4 SFRSYM    DATA     BIT       ACC_ACC4
      000000D8H   SFRSYM    DATA     BIT       PCA0CN0_CCF0
      000000E0H.5 SFRSYM    DATA     BIT       ACC_ACC5
      000000D8H.1 SFRSYM    DATA     BIT       PCA0CN0_CCF1
      000000E0H.6 SFRSYM    DATA     BIT       ACC_ACC6
      000000CCH   SFRSYM    DATA     WORD      TMR2
      000000D8H.2 SFRSYM    DATA     BIT       PCA0CN0_CCF2
      000000E0H.7 SFRSYM    DATA     BIT       ACC_ACC7
      00000094H   SFRSYM    DATA     WORD      TMR3
      000000B0H   SFRSYM    DATA     BIT       CS0CN0_CSCMPF
      000000C0H.3 SFRSYM    DATA     BIT       SMB0CN0_ACKRQ
      000000FFH   SFRSYM    DATA     BYTE      VDM0CN
      000000F1H   SFRSYM    DATA     BYTE      P0MDIN
      00000098H.4 SFRSYM    DATA     BIT       SCON0_REN
      000000F2H   SFRSYM    DATA     BYTE      P1MDIN
      000000FEH   SFRSYM    DATA     BYTE      CS0THH
      000000C0H.4 SFRSYM    DATA     BIT       SMB0CN0_STO
      000000B5H   SFRSYM    DATA     BYTE      PMU0CF
      000000C7H   SFRSYM    DATA     BYTE      P0MASK
      000000BFH   SFRSYM    DATA     BYTE      P1MASK
      000000FDH   SFRSYM    DATA     BYTE      CS0THL
      000000D0H.3 SFRSYM    DATA     BIT       PSW_RS0
      000000D8H.7 SFRSYM    DATA     BIT       PCA0CN0_CF
LX51 LINKER/LOCATER V4.66.30.0                                                        07/11/2017  21:49:04  PAGE 40


      000000F8H.4 SFRSYM    DATA     BIT       SPI0CN0_RXOVRN
      000000D0H.4 SFRSYM    DATA     BIT       PSW_RS1
      000000C8H   SFRSYM    DATA     BIT       TMR2CN0_T2XCLK0
      000000C8H.1 SFRSYM    DATA     BIT       TMR2CN0_T2XCLK1
      000000E8H.7 SFRSYM    DATA     BIT       ADC0CN0_ADEN
      00000089H   SFRSYM    DATA     BYTE      TMOD
      00000088H   SFRSYM    DATA     BYTE      TCON
      000000B5H   SFRSYM    DATA     BYTE      PMU0MD
      000000CEH   SFRSYM    DATA     BYTE      PMU0FL
      0000009CH   SFRSYM    DATA     BYTE      CRC0FLIP
      000000D0H   SFRSYM    DATA     BIT       PSW_PARITY
      000000A8H.4 SFRSYM    DATA     BIT       IE_ES0
      0000009FH   SFRSYM    DATA     BYTE      CMP0MX
      000000A8H.1 SFRSYM    DATA     BIT       IE_ET0
      000000A8H.3 SFRSYM    DATA     BIT       IE_ET1
      000000D4H   SFRSYM    DATA     BYTE      P0SKIP
      000000A8H.5 SFRSYM    DATA     BIT       IE_ET2
      000000D5H   SFRSYM    DATA     BYTE      P1SKIP
      000000E8H   SFRSYM    DATA     BYTE      ADC0CN0
      000000A8H   SFRSYM    DATA     BIT       IE_EX0
      000000D8H.6 SFRSYM    DATA     BIT       PCA0CN0_CR
      000000A8H.2 SFRSYM    DATA     BIT       IE_EX1
      00000098H.7 SFRSYM    DATA     BIT       SCON0_SMODE
      000000A9H   SFRSYM    DATA     BYTE      CLKSEL
      000000F8H   SFRSYM    DATA     BIT       SPI0CN0_SPIEN
      000000F0H   SFRSYM    DATA     BYTE      B
      000000BEH   SFRSYM    DATA     BYTE      ADC0H
      0000009EH   SFRSYM    DATA     BYTE      CRC0AUTO
      000000B0H.4 SFRSYM    DATA     BIT       CS0CN0_CSBUSY
      000000E8H.6 SFRSYM    DATA     BIT       ADC0CN0_ADBMEN
      000000CAH   SFRSYM    DATA     WORD      TMR2RL
      000000BDH   SFRSYM    DATA     BYTE      ADC0L
      00000092H   SFRSYM    DATA     WORD      TMR3RL
      000000D8H   SFRSYM    DATA     BYTE      PCA0CN0
      000000E0H   SFRSYM    DATA     BYTE      ACC
      000000FBH   SFRSYM    DATA     WORD      PCA0CP0
      000000E9H   SFRSYM    DATA     WORD      PCA0CP1
      000000EBH   SFRSYM    DATA     WORD      PCA0CP2
      00000084H   SFRSYM    DATA     BYTE      CRC0CN0
      0000008CH   SFRSYM    DATA     BYTE      TH0
      000000B8H.4 SFRSYM    DATA     BIT       IP_PS0
      0000008DH   SFRSYM    DATA     BYTE      TH1
      000000FAH   SFRSYM    DATA     BYTE      PCA0H
      000000B8H.1 SFRSYM    DATA     BIT       IP_PT0
      000000B8H.3 SFRSYM    DATA     BIT       IP_PT1
      000000C0H.2 SFRSYM    DATA     BIT       SMB0CN0_ARBLOST
      000000B8H.5 SFRSYM    DATA     BIT       IP_PT2
      0000008AH   SFRSYM    DATA     BYTE      TL0
      000000AAH   SFRSYM    DATA     BYTE      CS0CF
      000000F8H.1 SFRSYM    DATA     BIT       SPI0CN0_TXBMT
      000000D0H.5 SFRSYM    DATA     BIT       PSW_F0
      000000A8H.6 SFRSYM    DATA     BIT       IE_ESPI0
      0000008BH   SFRSYM    DATA     BYTE      TL1
      000000F9H   SFRSYM    DATA     BYTE      PCA0L
      000000C0H   SFRSYM    DATA     BIT       SMB0CN0_SI
      000000D0H.1 SFRSYM    DATA     BIT       PSW_F1
      00000080H   SFRSYM    DATA     BIT       P0_B0
      000000B8H   SFRSYM    DATA     BIT       IP_PX0
      00000090H   SFRSYM    DATA     BIT       P1_B0
      00000080H.1 SFRSYM    DATA     BIT       P0_B1
      000000B8H.2 SFRSYM    DATA     BIT       IP_PX1
      000000EEH   SFRSYM    DATA     BYTE      CS0DH
LX51 LINKER/LOCATER V4.66.30.0                                                        07/11/2017  21:49:04  PAGE 41


      0000009BH   SFRSYM    DATA     BYTE      CMP0CN0
      00000088H.1 SFRSYM    DATA     BIT       TCON_IE0
      00000090H.1 SFRSYM    DATA     BIT       P1_B1
      00000080H.2 SFRSYM    DATA     BIT       P0_B2
      00000088H.3 SFRSYM    DATA     BIT       TCON_IE1
      00000090H.2 SFRSYM    DATA     BIT       P1_B2
      00000080H.3 SFRSYM    DATA     BIT       P0_B3
      000000C0H   SFRSYM    DATA     BYTE      SMB0CN0
      00000090H.3 SFRSYM    DATA     BIT       P1_B3
      00000080H.4 SFRSYM    DATA     BIT       P0_B4
      00000090H.4 SFRSYM    DATA     BIT       P1_B4
      00000080H.5 SFRSYM    DATA     BIT       P0_B5
      000000EDH   SFRSYM    DATA     BYTE      CS0DL
      00000090H.5 SFRSYM    DATA     BIT       P1_B5
      00000080H.6 SFRSYM    DATA     BIT       P0_B6
      00000090H.6 SFRSYM    DATA     BIT       P1_B6
      00000080H.7 SFRSYM    DATA     BIT       P0_B7
      00000090H.7 SFRSYM    DATA     BIT       P1_B7
      000000A0H.7 SFRSYM    DATA     BIT       P2_B7
      00000083H   SFRSYM    DATA     BYTE      DPH
      000000C4H   SFRSYM    DATA     BYTE      ADC0GTH
      000000C8H.7 SFRSYM    DATA     BIT       TMR2CN0_TF2H
      000000C8H.3 SFRSYM    DATA     BIT       TMR2CN0_T2SPLIT
      000000D0H.6 SFRSYM    DATA     BIT       PSW_AC
      000000F8H   SFRSYM    DATA     BYTE      SPI0CN0
      000000B3H   SFRSYM    DATA     BYTE      HFO0CAL
      000000DEH   SFRSYM    DATA     BYTE      CS0SE
      00000088H.5 SFRSYM    DATA     BIT       TCON_TF0
      00000098H   SFRSYM    DATA     BIT       SCON0_RI
      00000082H   SFRSYM    DATA     BYTE      DPL
      00000088H.7 SFRSYM    DATA     BIT       TCON_TF1
      00000099H   SFRSYM    DATA     BYTE      SBUF0
      00000087H   SFRSYM    DATA     BYTE      PCON0
      000000B9H   SFRSYM    DATA     BYTE      IREF0CF
      000000C3H   SFRSYM    DATA     BYTE      ADC0GTL
      000000C8H.6 SFRSYM    DATA     BIT       TMR2CN0_TF2L
      00000098H.1 SFRSYM    DATA     BIT       SCON0_TI
      000000E8H   SFRSYM    DATA     BIT       ADC0CN0_ADCM0
      000000C6H   SFRSYM    DATA     BYTE      ADC0LTH
      00000088H   SFRSYM    DATA     BIT       TCON_IT0
      000000B0H.1 SFRSYM    DATA     BIT       CS0CN0_CSPME
      000000E8H.1 SFRSYM    DATA     BIT       ADC0CN0_ADCM1
      000000EFH   SFRSYM    DATA     BYTE      RSTSRC
      000000D7H   SFRSYM    DATA     BYTE      P0MAT
      00000086H   SFRSYM    DATA     BYTE      CRC0DAT
      00000088H.2 SFRSYM    DATA     BIT       TCON_IT1
      000000E8H.2 SFRSYM    DATA     BIT       ADC0CN0_ADCM2
      00000098H   SFRSYM    DATA     BYTE      SCON0
      000000CFH   SFRSYM    DATA     BYTE      P1MAT
      000000DEH   SFRSYM    DATA     BYTE      CS0PM
      000000E8H.3 SFRSYM    DATA     BIT       ADC0CN0_ADWINT
      000000E8H.4 SFRSYM    DATA     BIT       ADC0CN0_ADBUSY
      000000F5H   SFRSYM    DATA     BYTE      SMB0ADM
      000000C5H   SFRSYM    DATA     BYTE      ADC0LTL
      000000F8H.5 SFRSYM    DATA     BIT       SPI0CN0_MODF
      000000B8H.6 SFRSYM    DATA     BIT       IP_PSPI0
      000000B0H.6 SFRSYM    DATA     BIT       CS0CN0_CSEOS
      000000C8H   SFRSYM    DATA     BYTE      TMR2CN0
      00000091H   SFRSYM    DATA     BYTE      TMR3CN0
      000000F4H   SFRSYM    DATA     BYTE      SMB0ADR
      00000088H.4 SFRSYM    DATA     BIT       TCON_TR0
      000000B0H.5 SFRSYM    DATA     BIT       CS0CN0_CSINT
LX51 LINKER/LOCATER V4.66.30.0                                                        07/11/2017  21:49:04  PAGE 42


      000000ABH   SFRSYM    DATA     BYTE      CS0MX
      000000C8H.4 SFRSYM    DATA     BIT       TMR2CN0_TF2CEN
      00000088H.6 SFRSYM    DATA     BIT       TCON_TR1
      000000C2H   SFRSYM    DATA     BYTE      SMB0DAT
      00000099H   SFRSYM    DATA     BYTE      P0DRV
      000000DDH   SFRSYM    DATA     BYTE      CS0SS
      000000CDH   SFRSYM    DATA     BYTE      TMR2H
      000000A1H   SFRSYM    DATA     BYTE      SPI0CFG
      0000009BH   SFRSYM    DATA     BYTE      P1DRV
      00000095H   SFRSYM    DATA     BYTE      TMR3H
      0000009DH   SFRSYM    DATA     BYTE      P2DRV
      0000009AH   SFRSYM    DATA     BYTE      CRC0CNT
      000000CCH   SFRSYM    DATA     BYTE      TMR2L
      000000ACH   SFRSYM    DATA     BYTE      RTC0ADR
      000000F8H.7 SFRSYM    DATA     BIT       SPI0CN0_SPIF
      00000094H   SFRSYM    DATA     BYTE      TMR3L
      000000BBH   SFRSYM    DATA     BYTE      ADC0PWR
      000000A8H.7 SFRSYM    DATA     BIT       IE_EA
      000000ADH   SFRSYM    DATA     BYTE      RTC0DAT
      000000B0H.3 SFRSYM    DATA     BIT       CS0CN0_CSCMPEN
      000000B6H   SFRSYM    DATA     BYTE      FLSCL
      000000C8H.5 SFRSYM    DATA     BIT       TMR2CN0_TF2LEN
      000000F8H.6 SFRSYM    DATA     BIT       SPI0CN0_WCOL
      000000F8H.2 SFRSYM    DATA     BIT       SPI0CN0_NSSMD0
      000000D0H.7 SFRSYM    DATA     BIT       PSW_CY
      000000A3H   SFRSYM    DATA     BYTE      SPI0DAT
      000000F8H.3 SFRSYM    DATA     BIT       SPI0CN0_NSSMD1
      000000BDH   SFRSYM    DATA     WORD      ADC0
      0000008EH   SFRSYM    DATA     BYTE      TOFFH
      000000D0H   SFRSYM    DATA     BYTE      PSW
      000000DFH   SFRSYM    DATA     BYTE      PCA0PWM
      000000E2H   SFRSYM    DATA     BYTE      REVID
      0000008DH   SFRSYM    DATA     BYTE      TOFFL
      000000B7H   SFRSYM    DATA     BYTE      FLKEY
      000000BAH   SFRSYM    DATA     BYTE      ADC0AC
      00000007H   SYMBOL    DATA     CHAR      c
      00000001H   SYMBOL    DATA     BYTE      character
      00000002H   SYMBOL    DATA     WORD      output
      00000004H   SYMBOL    DATA     WORD      output
      00000006H   SYMBOL    DATA     WORD      offset
      00000006H   SYMBOL    DATA     WORD      offset
      00000006H   SYMBOL    DATA     WORD      offset
      00000006H   SYMBOL    DATA     WORD      offset

      ---         MODULE    ---      ---       PROFILER_INTERFACE
      00000047H   PUBLIC    DATA     BYTE      sendHeader
      00000058H   PUBLIC    IDATA    ---       headerEntries
      00000046H   PUBLIC    DATA     BYTE      needANewLine
      0000004DH   PUBLIC    IDATA    ---       offsetArray
      00000006H   SYMBOL    DATA     WORD      base

      ---         MODULE    ---      ---       SENSOR_DESCRIPTORS

      ---         MODULE    ---      ---       INITDEVICE
      01001B6EH   PUBLIC    CODE     ---       PCACH_1_enter_DefaultMode_from_RESET
      01001BA8H   PUBLIC    CODE     ---       FLASH_0_enter_DefaultMode_from_RESET
      01001BA4H   PUBLIC    CODE     ---       SiLabs_Startup
      01001B8DH   PUBLIC    CODE     ---       CSLIB_0_enter_DefaultMode_from_RESET
      010017E3H   PUBLIC    CODE     ---       RTC_0_enter_DefaultMode_from_RESET
      01001B67H   PUBLIC    CODE     ---       PCACH_0_enter_DefaultMode_from_RESET
      01001B2EH   PUBLIC    CODE     ---       CLOCK_0_enter_DefaultMode_from_RESET
      01001AA0H   PUBLIC    CODE     ---       PORTS_1_enter_DefaultMode_from_RESET
LX51 LINKER/LOCATER V4.66.30.0                                                        07/11/2017  21:49:04  PAGE 43


      01001B60H   PUBLIC    CODE     ---       PORTS_0_enter_DefaultMode_from_RESET
      01001B59H   PUBLIC    CODE     ---       PCACH_2_enter_DefaultMode_from_RESET
      01001AD4H   PUBLIC    CODE     ---       PCA_0_enter_DefaultMode_from_RESET
      01001B1AH   PUBLIC    CODE     ---       PBCFG_0_enter_DefaultMode_from_RESET
      01001705H   PUBLIC    CODE     ---       enter_DefaultMode_from_RESET
      000000A2H   SFRSYM    DATA     BYTE      SPI0CKR
      00000080H   SFRSYM    DATA     BYTE      P0
      000000D0H.2 SFRSYM    DATA     BIT       PSW_OV
      000000B1H   SFRSYM    DATA     BYTE      XOSC0CN
      00000090H   SFRSYM    DATA     BYTE      P1
      000000A0H   SFRSYM    DATA     BYTE      P2
      00000097H   SFRSYM    DATA     BYTE      ADC0CF
      000000C0H.7 SFRSYM    DATA     BIT       SMB0CN0_MASTER
      000000F9H   SFRSYM    DATA     WORD      PCA0
      000000AEH   SFRSYM    DATA     BYTE      RTC0KEY
      000000E6H   SFRSYM    DATA     BYTE      EIE1
      000000C0H.1 SFRSYM    DATA     BIT       SMB0CN0_ACK
      000000E7H   SFRSYM    DATA     BYTE      EIE2
      0000008FH   SFRSYM    DATA     BYTE      PSCTL
      000000E4H   SFRSYM    DATA     BYTE      IT01CF
      000000B0H   SFRSYM    DATA     BYTE      CS0CN0
      000000C0H.6 SFRSYM    DATA     BIT       SMB0CN0_TXMODE
      000000E3H   SFRSYM    DATA     BYTE      DERIVID
      000000AFH   SFRSYM    DATA     BYTE      CS0MD1
      000000A7H   SFRSYM    DATA     BYTE      SFRPAGE
      000000F3H   SFRSYM    DATA     BYTE      CS0MD2
      000000A4H   SFRSYM    DATA     BYTE      P0MDOUT
      000000F3H   SFRSYM    DATA     BYTE      CS0MD3
      000000A5H   SFRSYM    DATA     BYTE      P1MDOUT
      000000E8H.5 SFRSYM    DATA     BIT       ADC0CN0_ADINT
      000000CBH   SFRSYM    DATA     BYTE      TMR2RLH
      000000A6H   SFRSYM    DATA     BYTE      P2MDOUT
      000000A8H   SFRSYM    DATA     BYTE      IE
      00000093H   SFRSYM    DATA     BYTE      TMR3RLH
      000000F6H   SFRSYM    DATA     BYTE      EIP1
      000000F7H   SFRSYM    DATA     BYTE      EIP2
      00000098H.2 SFRSYM    DATA     BIT       SCON0_RB8
      000000CAH   SFRSYM    DATA     BYTE      TMR2RLL
      000000FCH   SFRSYM    DATA     BYTE      PCA0CPH0
      00000092H   SFRSYM    DATA     BYTE      TMR3RLL
      000000EAH   SFRSYM    DATA     BYTE      PCA0CPH1
      00000098H.3 SFRSYM    DATA     BIT       SCON0_TB8
      000000B0H.7 SFRSYM    DATA     BIT       CS0CN0_CSEN
      000000F0H   SFRSYM    DATA     BIT       B_B0
      00000082H   SFRSYM    DATA     WORD      DP
      000000ECH   SFRSYM    DATA     BYTE      PCA0CPH2
      000000F0H.1 SFRSYM    DATA     BIT       B_B1
      000000C3H   SFRSYM    DATA     WORD      ADC0GT
      000000F0H.2 SFRSYM    DATA     BIT       B_B2
      000000FBH   SFRSYM    DATA     BYTE      PCA0CPL0
      000000F0H.3 SFRSYM    DATA     BIT       B_B3
      000000D9H   SFRSYM    DATA     BYTE      PCA0MD
      000000DAH   SFRSYM    DATA     BYTE      PCA0CPM0
      000000E9H   SFRSYM    DATA     BYTE      PCA0CPL1
      000000F0H.4 SFRSYM    DATA     BIT       B_B4
      000000DBH   SFRSYM    DATA     BYTE      PCA0CPM1
      000000EBH   SFRSYM    DATA     BYTE      PCA0CPL2
      000000F0H.5 SFRSYM    DATA     BIT       B_B5
      000000DCH   SFRSYM    DATA     BYTE      PCA0CPM2
      000000B8H   SFRSYM    DATA     BYTE      IP
      000000BCH   SFRSYM    DATA     BYTE      ADC0TK
      000000F0H.6 SFRSYM    DATA     BIT       B_B6
LX51 LINKER/LOCATER V4.66.30.0                                                        07/11/2017  21:49:04  PAGE 44


      000000C5H   SFRSYM    DATA     WORD      ADC0LT
      000000D6H   SFRSYM    DATA     BYTE      IREF0CN0
      00000098H.5 SFRSYM    DATA     BIT       SCON0_MCE
      000000F0H.7 SFRSYM    DATA     BIT       B_B7
      000000E1H   SFRSYM    DATA     BYTE      XBR0
      000000C1H   SFRSYM    DATA     BYTE      SMB0CF
      000000E2H   SFRSYM    DATA     BYTE      XBR1
      000000D2H   SFRSYM    DATA     BYTE      CS0SCAN0
      000000C0H.5 SFRSYM    DATA     BIT       SMB0CN0_STA
      000000E3H   SFRSYM    DATA     BYTE      XBR2
      000000D3H   SFRSYM    DATA     BYTE      CS0SCAN1
      00000096H   SFRSYM    DATA     BYTE      ADC0MX
      000000E0H   SFRSYM    DATA     BIT       ACC_ACC0
      000000D1H   SFRSYM    DATA     BYTE      REF0CN
      000000B2H   SFRSYM    DATA     BYTE      HFO0CN
      0000008EH   SFRSYM    DATA     BYTE      CKCON0
      000000E0H.1 SFRSYM    DATA     BIT       ACC_ACC1
      000000C9H   SFRSYM    DATA     BYTE      REG0CN
      00000085H   SFRSYM    DATA     BYTE      CRC0IN
      000000C8H.2 SFRSYM    DATA     BIT       TMR2CN0_TR2
      000000E0H.2 SFRSYM    DATA     BIT       ACC_ACC2
      000000E0H.3 SFRSYM    DATA     BIT       ACC_ACC3
      00000081H   SFRSYM    DATA     BYTE      SP
      0000009DH   SFRSYM    DATA     BYTE      CMP0MD
      000000E0H.4 SFRSYM    DATA     BIT       ACC_ACC4
      000000D8H   SFRSYM    DATA     BIT       PCA0CN0_CCF0
      000000E0H.5 SFRSYM    DATA     BIT       ACC_ACC5
      000000D8H.1 SFRSYM    DATA     BIT       PCA0CN0_CCF1
      000000E0H.6 SFRSYM    DATA     BIT       ACC_ACC6
      000000CCH   SFRSYM    DATA     WORD      TMR2
      000000D8H.2 SFRSYM    DATA     BIT       PCA0CN0_CCF2
      000000E0H.7 SFRSYM    DATA     BIT       ACC_ACC7
      00000094H   SFRSYM    DATA     WORD      TMR3
      000000B0H   SFRSYM    DATA     BIT       CS0CN0_CSCMPF
      000000C0H.3 SFRSYM    DATA     BIT       SMB0CN0_ACKRQ
      000000FFH   SFRSYM    DATA     BYTE      VDM0CN
      000000F1H   SFRSYM    DATA     BYTE      P0MDIN
      00000098H.4 SFRSYM    DATA     BIT       SCON0_REN
      000000F2H   SFRSYM    DATA     BYTE      P1MDIN
      000000FEH   SFRSYM    DATA     BYTE      CS0THH
      000000C0H.4 SFRSYM    DATA     BIT       SMB0CN0_STO
      000000B5H   SFRSYM    DATA     BYTE      PMU0CF
      000000C7H   SFRSYM    DATA     BYTE      P0MASK
      000000BFH   SFRSYM    DATA     BYTE      P1MASK
      000000FDH   SFRSYM    DATA     BYTE      CS0THL
      000000D0H.3 SFRSYM    DATA     BIT       PSW_RS0
      000000D8H.7 SFRSYM    DATA     BIT       PCA0CN0_CF
      000000F8H.4 SFRSYM    DATA     BIT       SPI0CN0_RXOVRN
      000000D0H.4 SFRSYM    DATA     BIT       PSW_RS1
      000000C8H   SFRSYM    DATA     BIT       TMR2CN0_T2XCLK0
      000000C8H.1 SFRSYM    DATA     BIT       TMR2CN0_T2XCLK1
      000000E8H.7 SFRSYM    DATA     BIT       ADC0CN0_ADEN
      00000089H   SFRSYM    DATA     BYTE      TMOD
      00000088H   SFRSYM    DATA     BYTE      TCON
      000000B5H   SFRSYM    DATA     BYTE      PMU0MD
      000000CEH   SFRSYM    DATA     BYTE      PMU0FL
      0000009CH   SFRSYM    DATA     BYTE      CRC0FLIP
      000000D0H   SFRSYM    DATA     BIT       PSW_PARITY
      000000A8H.4 SFRSYM    DATA     BIT       IE_ES0
      0000009FH   SFRSYM    DATA     BYTE      CMP0MX
      000000A8H.1 SFRSYM    DATA     BIT       IE_ET0
      000000A8H.3 SFRSYM    DATA     BIT       IE_ET1
LX51 LINKER/LOCATER V4.66.30.0                                                        07/11/2017  21:49:04  PAGE 45


      000000D4H   SFRSYM    DATA     BYTE      P0SKIP
      000000A8H.5 SFRSYM    DATA     BIT       IE_ET2
      000000D5H   SFRSYM    DATA     BYTE      P1SKIP
      000000E8H   SFRSYM    DATA     BYTE      ADC0CN0
      000000A8H   SFRSYM    DATA     BIT       IE_EX0
      000000D8H.6 SFRSYM    DATA     BIT       PCA0CN0_CR
      000000A8H.2 SFRSYM    DATA     BIT       IE_EX1
      00000098H.7 SFRSYM    DATA     BIT       SCON0_SMODE
      000000A9H   SFRSYM    DATA     BYTE      CLKSEL
      000000F8H   SFRSYM    DATA     BIT       SPI0CN0_SPIEN
      000000F0H   SFRSYM    DATA     BYTE      B
      000000BEH   SFRSYM    DATA     BYTE      ADC0H
      0000009EH   SFRSYM    DATA     BYTE      CRC0AUTO
      000000B0H.4 SFRSYM    DATA     BIT       CS0CN0_CSBUSY
      000000E8H.6 SFRSYM    DATA     BIT       ADC0CN0_ADBMEN
      000000CAH   SFRSYM    DATA     WORD      TMR2RL
      000000BDH   SFRSYM    DATA     BYTE      ADC0L
      00000092H   SFRSYM    DATA     WORD      TMR3RL
      000000D8H   SFRSYM    DATA     BYTE      PCA0CN0
      000000E0H   SFRSYM    DATA     BYTE      ACC
      000000FBH   SFRSYM    DATA     WORD      PCA0CP0
      000000E9H   SFRSYM    DATA     WORD      PCA0CP1
      000000EBH   SFRSYM    DATA     WORD      PCA0CP2
      00000084H   SFRSYM    DATA     BYTE      CRC0CN0
      0000008CH   SFRSYM    DATA     BYTE      TH0
      000000B8H.4 SFRSYM    DATA     BIT       IP_PS0
      0000008DH   SFRSYM    DATA     BYTE      TH1
      000000FAH   SFRSYM    DATA     BYTE      PCA0H
      000000B8H.1 SFRSYM    DATA     BIT       IP_PT0
      000000B8H.3 SFRSYM    DATA     BIT       IP_PT1
      000000C0H.2 SFRSYM    DATA     BIT       SMB0CN0_ARBLOST
      000000B8H.5 SFRSYM    DATA     BIT       IP_PT2
      0000008AH   SFRSYM    DATA     BYTE      TL0
      000000AAH   SFRSYM    DATA     BYTE      CS0CF
      000000F8H.1 SFRSYM    DATA     BIT       SPI0CN0_TXBMT
      000000D0H.5 SFRSYM    DATA     BIT       PSW_F0
      000000A8H.6 SFRSYM    DATA     BIT       IE_ESPI0
      0000008BH   SFRSYM    DATA     BYTE      TL1
      000000F9H   SFRSYM    DATA     BYTE      PCA0L
      000000C0H   SFRSYM    DATA     BIT       SMB0CN0_SI
      000000D0H.1 SFRSYM    DATA     BIT       PSW_F1
      00000080H   SFRSYM    DATA     BIT       P0_B0
      000000B8H   SFRSYM    DATA     BIT       IP_PX0
      00000090H   SFRSYM    DATA     BIT       P1_B0
      00000080H.1 SFRSYM    DATA     BIT       P0_B1
      000000B8H.2 SFRSYM    DATA     BIT       IP_PX1
      000000EEH   SFRSYM    DATA     BYTE      CS0DH
      0000009BH   SFRSYM    DATA     BYTE      CMP0CN0
      00000088H.1 SFRSYM    DATA     BIT       TCON_IE0
      00000090H.1 SFRSYM    DATA     BIT       P1_B1
      00000080H.2 SFRSYM    DATA     BIT       P0_B2
      00000088H.3 SFRSYM    DATA     BIT       TCON_IE1
      00000090H.2 SFRSYM    DATA     BIT       P1_B2
      00000080H.3 SFRSYM    DATA     BIT       P0_B3
      000000C0H   SFRSYM    DATA     BYTE      SMB0CN0
      00000090H.3 SFRSYM    DATA     BIT       P1_B3
      00000080H.4 SFRSYM    DATA     BIT       P0_B4
      00000090H.4 SFRSYM    DATA     BIT       P1_B4
      00000080H.5 SFRSYM    DATA     BIT       P0_B5
      000000EDH   SFRSYM    DATA     BYTE      CS0DL
      00000090H.5 SFRSYM    DATA     BIT       P1_B5
      00000080H.6 SFRSYM    DATA     BIT       P0_B6
LX51 LINKER/LOCATER V4.66.30.0                                                        07/11/2017  21:49:04  PAGE 46


      00000090H.6 SFRSYM    DATA     BIT       P1_B6
      00000080H.7 SFRSYM    DATA     BIT       P0_B7
      00000090H.7 SFRSYM    DATA     BIT       P1_B7
      000000A0H.7 SFRSYM    DATA     BIT       P2_B7
      00000083H   SFRSYM    DATA     BYTE      DPH
      000000C4H   SFRSYM    DATA     BYTE      ADC0GTH
      000000C8H.7 SFRSYM    DATA     BIT       TMR2CN0_TF2H
      000000C8H.3 SFRSYM    DATA     BIT       TMR2CN0_T2SPLIT
      000000D0H.6 SFRSYM    DATA     BIT       PSW_AC
      000000F8H   SFRSYM    DATA     BYTE      SPI0CN0
      000000B3H   SFRSYM    DATA     BYTE      HFO0CAL
      000000DEH   SFRSYM    DATA     BYTE      CS0SE
      00000088H.5 SFRSYM    DATA     BIT       TCON_TF0
      00000098H   SFRSYM    DATA     BIT       SCON0_RI
      00000082H   SFRSYM    DATA     BYTE      DPL
      00000088H.7 SFRSYM    DATA     BIT       TCON_TF1
      00000099H   SFRSYM    DATA     BYTE      SBUF0
      00000087H   SFRSYM    DATA     BYTE      PCON0
      000000B9H   SFRSYM    DATA     BYTE      IREF0CF
      000000C3H   SFRSYM    DATA     BYTE      ADC0GTL
      000000C8H.6 SFRSYM    DATA     BIT       TMR2CN0_TF2L
      00000098H.1 SFRSYM    DATA     BIT       SCON0_TI
      000000E8H   SFRSYM    DATA     BIT       ADC0CN0_ADCM0
      000000C6H   SFRSYM    DATA     BYTE      ADC0LTH
      00000088H   SFRSYM    DATA     BIT       TCON_IT0
      000000B0H.1 SFRSYM    DATA     BIT       CS0CN0_CSPME
      000000E8H.1 SFRSYM    DATA     BIT       ADC0CN0_ADCM1
      000000EFH   SFRSYM    DATA     BYTE      RSTSRC
      000000D7H   SFRSYM    DATA     BYTE      P0MAT
      00000086H   SFRSYM    DATA     BYTE      CRC0DAT
      00000088H.2 SFRSYM    DATA     BIT       TCON_IT1
      000000E8H.2 SFRSYM    DATA     BIT       ADC0CN0_ADCM2
      00000098H   SFRSYM    DATA     BYTE      SCON0
      000000CFH   SFRSYM    DATA     BYTE      P1MAT
      000000DEH   SFRSYM    DATA     BYTE      CS0PM
      000000E8H.3 SFRSYM    DATA     BIT       ADC0CN0_ADWINT
      000000E8H.4 SFRSYM    DATA     BIT       ADC0CN0_ADBUSY
      000000F5H   SFRSYM    DATA     BYTE      SMB0ADM
      000000C5H   SFRSYM    DATA     BYTE      ADC0LTL
      000000F8H.5 SFRSYM    DATA     BIT       SPI0CN0_MODF
      000000B8H.6 SFRSYM    DATA     BIT       IP_PSPI0
      000000B0H.6 SFRSYM    DATA     BIT       CS0CN0_CSEOS
      000000C8H   SFRSYM    DATA     BYTE      TMR2CN0
      00000091H   SFRSYM    DATA     BYTE      TMR3CN0
      000000F4H   SFRSYM    DATA     BYTE      SMB0ADR
      00000088H.4 SFRSYM    DATA     BIT       TCON_TR0
      000000B0H.5 SFRSYM    DATA     BIT       CS0CN0_CSINT
      000000ABH   SFRSYM    DATA     BYTE      CS0MX
      000000C8H.4 SFRSYM    DATA     BIT       TMR2CN0_TF2CEN
      00000088H.6 SFRSYM    DATA     BIT       TCON_TR1
      000000C2H   SFRSYM    DATA     BYTE      SMB0DAT
      00000099H   SFRSYM    DATA     BYTE      P0DRV
      000000DDH   SFRSYM    DATA     BYTE      CS0SS
      000000CDH   SFRSYM    DATA     BYTE      TMR2H
      000000A1H   SFRSYM    DATA     BYTE      SPI0CFG
      0000009BH   SFRSYM    DATA     BYTE      P1DRV
      00000095H   SFRSYM    DATA     BYTE      TMR3H
      0000009DH   SFRSYM    DATA     BYTE      P2DRV
      0000009AH   SFRSYM    DATA     BYTE      CRC0CNT
      000000CCH   SFRSYM    DATA     BYTE      TMR2L
      000000ACH   SFRSYM    DATA     BYTE      RTC0ADR
      000000F8H.7 SFRSYM    DATA     BIT       SPI0CN0_SPIF
LX51 LINKER/LOCATER V4.66.30.0                                                        07/11/2017  21:49:04  PAGE 47


      00000094H   SFRSYM    DATA     BYTE      TMR3L
      000000BBH   SFRSYM    DATA     BYTE      ADC0PWR
      000000A8H.7 SFRSYM    DATA     BIT       IE_EA
      000000ADH   SFRSYM    DATA     BYTE      RTC0DAT
      000000B0H.3 SFRSYM    DATA     BIT       CS0CN0_CSCMPEN
      000000B6H   SFRSYM    DATA     BYTE      FLSCL
      000000C8H.5 SFRSYM    DATA     BIT       TMR2CN0_TF2LEN
      000000F8H.6 SFRSYM    DATA     BIT       SPI0CN0_WCOL
      000000F8H.2 SFRSYM    DATA     BIT       SPI0CN0_NSSMD0
      000000D0H.7 SFRSYM    DATA     BIT       PSW_CY
      000000A3H   SFRSYM    DATA     BYTE      SPI0DAT
      000000F8H.3 SFRSYM    DATA     BIT       SPI0CN0_NSSMD1
      000000BDH   SFRSYM    DATA     WORD      ADC0
      0000008EH   SFRSYM    DATA     BYTE      TOFFH
      000000D0H   SFRSYM    DATA     BYTE      PSW
      000000DFH   SFRSYM    DATA     BYTE      PCA0PWM
      000000E2H   SFRSYM    DATA     BYTE      REVID
      0000008DH   SFRSYM    DATA     BYTE      TOFFL
      000000B7H   SFRSYM    DATA     BYTE      FLKEY
      000000BAH   SFRSYM    DATA     BYTE      ADC0AC

      01001705H   BLOCK     CODE     ---       LVL=0
      01001705H   BLOCK     CODE     NEAR LAB  LVL=1
      0000001BH   SYMBOL    DATA     BYTE      SFRPAGE_save
      ---         BLOCKEND  ---      ---       LVL=1
      01001705H   LINE      CODE     ---       #24
      01001705H   LINE      CODE     ---       #27
      01001708H   LINE      CODE     ---       #28
      0100170BH   LINE      CODE     ---       #29
      0100170EH   LINE      CODE     ---       #30
      01001711H   LINE      CODE     ---       #31
      01001714H   LINE      CODE     ---       #32
      01001717H   LINE      CODE     ---       #33
      0100171AH   LINE      CODE     ---       #34
      0100171DH   LINE      CODE     ---       #35
      01001720H   LINE      CODE     ---       #36
      01001723H   LINE      CODE     ---       #37
      01001726H   LINE      CODE     ---       #38
      01001729H   LINE      CODE     ---       #40
      0100172CH   LINE      CODE     ---       #43
      ---         BLOCKEND  ---      ---       LVL=0

      01001B1AH   BLOCK     CODE     ---       LVL=0
      01001B1AH   LINE      CODE     ---       #45
      01001B1AH   LINE      CODE     ---       #51
      01001B1DH   LINE      CODE     ---       #52
      01001B20H   LINE      CODE     ---       #65
      01001B23H   LINE      CODE     ---       #69
      ---         BLOCKEND  ---      ---       LVL=0

      01001AD4H   BLOCK     CODE     ---       LVL=0
      01001AD4H   LINE      CODE     ---       #71
      01001AD4H   LINE      CODE     ---       #82
      01001AD7H   LINE      CODE     ---       #83
      01001ADAH   LINE      CODE     ---       #84
      01001ADCH   LINE      CODE     ---       #102
      01001ADFH   LINE      CODE     ---       #105
      ---         BLOCKEND  ---      ---       LVL=0

      01001B59H   BLOCK     CODE     ---       LVL=0
      01001B59H   LINE      CODE     ---       #107
      01001B59H   LINE      CODE     ---       #110
LX51 LINKER/LOCATER V4.66.30.0                                                        07/11/2017  21:49:04  PAGE 48


      01001B5CH   LINE      CODE     ---       #124
      01001B5FH   LINE      CODE     ---       #142
      ---         BLOCKEND  ---      ---       LVL=0

      01001B60H   BLOCK     CODE     ---       LVL=0
      01001B60H   LINE      CODE     ---       #144
      01001B60H   LINE      CODE     ---       #162
      01001B63H   LINE      CODE     ---       #178
      01001B66H   LINE      CODE     ---       #192
      ---         BLOCKEND  ---      ---       LVL=0

      01001AA0H   BLOCK     CODE     ---       LVL=0
      01001AA0H   LINE      CODE     ---       #194
      01001AA0H   LINE      CODE     ---       #215
      01001AA3H   LINE      CODE     ---       #231
      01001AA6H   LINE      CODE     ---       #253
      01001AA9H   LINE      CODE     ---       #254
      01001AACH   LINE      CODE     ---       #259
      ---         BLOCKEND  ---      ---       LVL=0

      01001B2EH   BLOCK     CODE     ---       LVL=0
      01001B2EH   LINE      CODE     ---       #261
      01001B2EH   LINE      CODE     ---       #267
      01001B31H   LINE      CODE     ---       #269
      01001B36H   LINE      CODE     ---       #273
      ---         BLOCKEND  ---      ---       LVL=0

      01001B67H   BLOCK     CODE     ---       LVL=0
      01001B67H   LINE      CODE     ---       #275
      01001B67H   LINE      CODE     ---       #278
      01001B6AH   LINE      CODE     ---       #292
      01001B6DH   LINE      CODE     ---       #310
      ---         BLOCKEND  ---      ---       LVL=0

      010017E3H   BLOCK     CODE     ---       LVL=0
      010017E3H   LINE      CODE     ---       #312
      010017E3H   LINE      CODE     ---       #327
      010017E6H   LINE      CODE     ---       #328
      010017E9H   LINE      CODE     ---       #329
      010017EEH   LINE      CODE     ---       #349
      010017F1H   LINE      CODE     ---       #350
      010017F4H   LINE      CODE     ---       #351
      010017F9H   LINE      CODE     ---       #374
      010017FCH   LINE      CODE     ---       #375
      010017FFH   LINE      CODE     ---       #379
      01001804H   LINE      CODE     ---       #387
      ---         BLOCKEND  ---      ---       LVL=0

      01001B8DH   BLOCK     CODE     ---       LVL=0
      01001B8DH   LINE      CODE     ---       #389
      01001B8DH   LINE      CODE     ---       #396
      01001B90H   LINE      CODE     ---       #402
      ---         BLOCKEND  ---      ---       LVL=0

      01001BA4H   BLOCK     CODE     ---       LVL=0
      01001BA4H   LINE      CODE     ---       #408
      01001BA4H   LINE      CODE     ---       #413
      01001BA7H   LINE      CODE     ---       #417
      ---         BLOCKEND  ---      ---       LVL=0

      01001BA8H   BLOCK     CODE     ---       LVL=0
      01001BA8H   LINE      CODE     ---       #439
LX51 LINKER/LOCATER V4.66.30.0                                                        07/11/2017  21:49:04  PAGE 49


      01001BA8H   LINE      CODE     ---       #444
      01001BABH   LINE      CODE     ---       #447
      ---         BLOCKEND  ---      ---       LVL=0

      01001B6EH   BLOCK     CODE     ---       LVL=0
      01001B6EH   LINE      CODE     ---       #449
      01001B6EH   LINE      CODE     ---       #452
      01001B71H   LINE      CODE     ---       #466
      01001B74H   LINE      CODE     ---       #484
      ---         BLOCKEND  ---      ---       LVL=0

      ---         MODULE    ---      ---       ?C_STARTUP
      01000000H   PUBLIC    CODE     NEAR LAB  ?C_STARTUP
      000000E0H   SFRSYM    DATA     BYTE      ACC
      000000F0H   SFRSYM    DATA     BYTE      B
      00000083H   SFRSYM    DATA     BYTE      DPH
      00000082H   SFRSYM    DATA     BYTE      DPL
      000000A0H   SFRSYM    DATA     BYTE      PPAGE_SFR
      00000081H   SFRSYM    DATA     BYTE      SP
      00000000H   SYMBOL    NUMBER   ---       IBPSTACK
      00000100H   SYMBOL    NUMBER   ---       IBPSTACKTOP
      00000080H   SYMBOL    NUMBER   ---       IDATALEN
      01000DF8H   SYMBOL    CODE     NEAR LAB  IDATALOOP
      00000000H   SYMBOL    NUMBER   ---       PBPSTACK
      00000100H   SYMBOL    NUMBER   ---       PBPSTACKTOP
      00000000H   SYMBOL    NUMBER   ---       PDATALEN
      00000000H   SYMBOL    NUMBER   ---       PDATASTART
      00000000H   SYMBOL    NUMBER   ---       PPAGE
      00000000H   SYMBOL    NUMBER   ---       PPAGEENABLE
      01000DF2H   SYMBOL    CODE     NEAR LAB  STARTUP1
      00000000H   SYMBOL    NUMBER   ---       XBPSTACK
      00010000H   SYMBOL    NUMBER   ---       XBPSTACKTOP
      00000000H   SYMBOL    NUMBER   ---       XDATALEN
      00000000H   SYMBOL    NUMBER   ---       XDATASTART

      01000000H   BLOCK     CODE     NEAR LAB  LVL=0
      01000000H   LINE      CODE     ---       #126
      ---         BLOCKEND  ---      ---       LVL=0

      01000DF2H   BLOCK     CODE     NEAR LAB  LVL=0
      01000DF2H   LINE      CODE     ---       #134
      01000DF5H   LINE      CODE     ---       #138
      01000DF7H   LINE      CODE     ---       #139
      01000DF8H   LINE      CODE     ---       #140
      01000DF9H   LINE      CODE     ---       #141
      01000DFBH   LINE      CODE     ---       #190
      01000DFEH   LINE      CODE     ---       #201
      ---         BLOCKEND  ---      ---       LVL=0

      ---         MODULE    ---      ---       CIRCLE_SLIDER
      01000681H   PUBLIC    CODE     ---       CalculatePosition
      01000F0EH   PUBLIC    CODE     ---       IsTouchQualified
      0100193FH   PUBLIC    CODE     ---       _NormalizeAngle
      000000A2H   SFRSYM    DATA     BYTE      SPI0CKR
      00000080H   SFRSYM    DATA     BYTE      P0
      000000D0H.2 SFRSYM    DATA     BIT       PSW_OV
      000000B1H   SFRSYM    DATA     BYTE      XOSC0CN
      00000090H   SFRSYM    DATA     BYTE      P1
      000000A0H   SFRSYM    DATA     BYTE      P2
      00000097H   SFRSYM    DATA     BYTE      ADC0CF
      000000C0H.7 SFRSYM    DATA     BIT       SMB0CN0_MASTER
      000000F9H   SFRSYM    DATA     WORD      PCA0
LX51 LINKER/LOCATER V4.66.30.0                                                        07/11/2017  21:49:04  PAGE 50


      000000AEH   SFRSYM    DATA     BYTE      RTC0KEY
      000000E6H   SFRSYM    DATA     BYTE      EIE1
      000000C0H.1 SFRSYM    DATA     BIT       SMB0CN0_ACK
      000000E7H   SFRSYM    DATA     BYTE      EIE2
      0000008FH   SFRSYM    DATA     BYTE      PSCTL
      000000E4H   SFRSYM    DATA     BYTE      IT01CF
      000000B0H   SFRSYM    DATA     BYTE      CS0CN0
      000000C0H.6 SFRSYM    DATA     BIT       SMB0CN0_TXMODE
      000000E3H   SFRSYM    DATA     BYTE      DERIVID
      000000AFH   SFRSYM    DATA     BYTE      CS0MD1
      000000A7H   SFRSYM    DATA     BYTE      SFRPAGE
      000000F3H   SFRSYM    DATA     BYTE      CS0MD2
      000000A4H   SFRSYM    DATA     BYTE      P0MDOUT
      000000F3H   SFRSYM    DATA     BYTE      CS0MD3
      000000A5H   SFRSYM    DATA     BYTE      P1MDOUT
      000000E8H.5 SFRSYM    DATA     BIT       ADC0CN0_ADINT
      000000CBH   SFRSYM    DATA     BYTE      TMR2RLH
      000000A6H   SFRSYM    DATA     BYTE      P2MDOUT
      000000A8H   SFRSYM    DATA     BYTE      IE
      00000093H   SFRSYM    DATA     BYTE      TMR3RLH
      000000F6H   SFRSYM    DATA     BYTE      EIP1
      000000F7H   SFRSYM    DATA     BYTE      EIP2
      00000098H.2 SFRSYM    DATA     BIT       SCON0_RB8
      000000CAH   SFRSYM    DATA     BYTE      TMR2RLL
      000000FCH   SFRSYM    DATA     BYTE      PCA0CPH0
      00000092H   SFRSYM    DATA     BYTE      TMR3RLL
      000000EAH   SFRSYM    DATA     BYTE      PCA0CPH1
      00000098H.3 SFRSYM    DATA     BIT       SCON0_TB8
      000000B0H.7 SFRSYM    DATA     BIT       CS0CN0_CSEN
      000000F0H   SFRSYM    DATA     BIT       B_B0
      00000082H   SFRSYM    DATA     WORD      DP
      000000ECH   SFRSYM    DATA     BYTE      PCA0CPH2
      000000F0H.1 SFRSYM    DATA     BIT       B_B1
      000000C3H   SFRSYM    DATA     WORD      ADC0GT
      000000F0H.2 SFRSYM    DATA     BIT       B_B2
      000000FBH   SFRSYM    DATA     BYTE      PCA0CPL0
      000000F0H.3 SFRSYM    DATA     BIT       B_B3
      000000D9H   SFRSYM    DATA     BYTE      PCA0MD
      000000DAH   SFRSYM    DATA     BYTE      PCA0CPM0
      000000E9H   SFRSYM    DATA     BYTE      PCA0CPL1
      000000F0H.4 SFRSYM    DATA     BIT       B_B4
      000000DBH   SFRSYM    DATA     BYTE      PCA0CPM1
      000000EBH   SFRSYM    DATA     BYTE      PCA0CPL2
      000000F0H.5 SFRSYM    DATA     BIT       B_B5
      000000DCH   SFRSYM    DATA     BYTE      PCA0CPM2
      000000B8H   SFRSYM    DATA     BYTE      IP
      000000BCH   SFRSYM    DATA     BYTE      ADC0TK
      000000F0H.6 SFRSYM    DATA     BIT       B_B6
      000000C5H   SFRSYM    DATA     WORD      ADC0LT
      000000D6H   SFRSYM    DATA     BYTE      IREF0CN0
      00000098H.5 SFRSYM    DATA     BIT       SCON0_MCE
      000000F0H.7 SFRSYM    DATA     BIT       B_B7
      000000E1H   SFRSYM    DATA     BYTE      XBR0
      000000C1H   SFRSYM    DATA     BYTE      SMB0CF
      000000E2H   SFRSYM    DATA     BYTE      XBR1
      000000D2H   SFRSYM    DATA     BYTE      CS0SCAN0
      000000C0H.5 SFRSYM    DATA     BIT       SMB0CN0_STA
      000000E3H   SFRSYM    DATA     BYTE      XBR2
      000000D3H   SFRSYM    DATA     BYTE      CS0SCAN1
      00000096H   SFRSYM    DATA     BYTE      ADC0MX
      000000E0H   SFRSYM    DATA     BIT       ACC_ACC0
      000000D1H   SFRSYM    DATA     BYTE      REF0CN
LX51 LINKER/LOCATER V4.66.30.0                                                        07/11/2017  21:49:04  PAGE 51


      000000B2H   SFRSYM    DATA     BYTE      HFO0CN
      0000008EH   SFRSYM    DATA     BYTE      CKCON0
      000000E0H.1 SFRSYM    DATA     BIT       ACC_ACC1
      000000C9H   SFRSYM    DATA     BYTE      REG0CN
      00000085H   SFRSYM    DATA     BYTE      CRC0IN
      000000C8H.2 SFRSYM    DATA     BIT       TMR2CN0_TR2
      000000E0H.2 SFRSYM    DATA     BIT       ACC_ACC2
      000000E0H.3 SFRSYM    DATA     BIT       ACC_ACC3
      00000081H   SFRSYM    DATA     BYTE      SP
      0000009DH   SFRSYM    DATA     BYTE      CMP0MD
      000000E0H.4 SFRSYM    DATA     BIT       ACC_ACC4
      000000D8H   SFRSYM    DATA     BIT       PCA0CN0_CCF0
      000000E0H.5 SFRSYM    DATA     BIT       ACC_ACC5
      000000D8H.1 SFRSYM    DATA     BIT       PCA0CN0_CCF1
      000000E0H.6 SFRSYM    DATA     BIT       ACC_ACC6
      000000CCH   SFRSYM    DATA     WORD      TMR2
      000000D8H.2 SFRSYM    DATA     BIT       PCA0CN0_CCF2
      000000E0H.7 SFRSYM    DATA     BIT       ACC_ACC7
      00000094H   SFRSYM    DATA     WORD      TMR3
      000000B0H   SFRSYM    DATA     BIT       CS0CN0_CSCMPF
      000000C0H.3 SFRSYM    DATA     BIT       SMB0CN0_ACKRQ
      000000FFH   SFRSYM    DATA     BYTE      VDM0CN
      000000F1H   SFRSYM    DATA     BYTE      P0MDIN
      00000098H.4 SFRSYM    DATA     BIT       SCON0_REN
      000000F2H   SFRSYM    DATA     BYTE      P1MDIN
      000000FEH   SFRSYM    DATA     BYTE      CS0THH
      000000C0H.4 SFRSYM    DATA     BIT       SMB0CN0_STO
      000000B5H   SFRSYM    DATA     BYTE      PMU0CF
      000000C7H   SFRSYM    DATA     BYTE      P0MASK
      000000BFH   SFRSYM    DATA     BYTE      P1MASK
      000000FDH   SFRSYM    DATA     BYTE      CS0THL
      000000D0H.3 SFRSYM    DATA     BIT       PSW_RS0
      000000D8H.7 SFRSYM    DATA     BIT       PCA0CN0_CF
      000000F8H.4 SFRSYM    DATA     BIT       SPI0CN0_RXOVRN
      000000D0H.4 SFRSYM    DATA     BIT       PSW_RS1
      000000C8H   SFRSYM    DATA     BIT       TMR2CN0_T2XCLK0
      000000C8H.1 SFRSYM    DATA     BIT       TMR2CN0_T2XCLK1
      000000E8H.7 SFRSYM    DATA     BIT       ADC0CN0_ADEN
      00000089H   SFRSYM    DATA     BYTE      TMOD
      00000088H   SFRSYM    DATA     BYTE      TCON
      000000B5H   SFRSYM    DATA     BYTE      PMU0MD
      000000CEH   SFRSYM    DATA     BYTE      PMU0FL
      0000009CH   SFRSYM    DATA     BYTE      CRC0FLIP
      000000D0H   SFRSYM    DATA     BIT       PSW_PARITY
      000000A8H.4 SFRSYM    DATA     BIT       IE_ES0
      0000009FH   SFRSYM    DATA     BYTE      CMP0MX
      000000A8H.1 SFRSYM    DATA     BIT       IE_ET0
      000000A8H.3 SFRSYM    DATA     BIT       IE_ET1
      000000D4H   SFRSYM    DATA     BYTE      P0SKIP
      000000A8H.5 SFRSYM    DATA     BIT       IE_ET2
      000000D5H   SFRSYM    DATA     BYTE      P1SKIP
      000000E8H   SFRSYM    DATA     BYTE      ADC0CN0
      000000A8H   SFRSYM    DATA     BIT       IE_EX0
      000000D8H.6 SFRSYM    DATA     BIT       PCA0CN0_CR
      000000A8H.2 SFRSYM    DATA     BIT       IE_EX1
      00000098H.7 SFRSYM    DATA     BIT       SCON0_SMODE
      000000A9H   SFRSYM    DATA     BYTE      CLKSEL
      000000F8H   SFRSYM    DATA     BIT       SPI0CN0_SPIEN
      000000F0H   SFRSYM    DATA     BYTE      B
      000000BEH   SFRSYM    DATA     BYTE      ADC0H
      0000009EH   SFRSYM    DATA     BYTE      CRC0AUTO
      000000B0H.4 SFRSYM    DATA     BIT       CS0CN0_CSBUSY
LX51 LINKER/LOCATER V4.66.30.0                                                        07/11/2017  21:49:04  PAGE 52


      000000E8H.6 SFRSYM    DATA     BIT       ADC0CN0_ADBMEN
      000000CAH   SFRSYM    DATA     WORD      TMR2RL
      000000BDH   SFRSYM    DATA     BYTE      ADC0L
      00000092H   SFRSYM    DATA     WORD      TMR3RL
      000000D8H   SFRSYM    DATA     BYTE      PCA0CN0
      000000E0H   SFRSYM    DATA     BYTE      ACC
      000000FBH   SFRSYM    DATA     WORD      PCA0CP0
      000000E9H   SFRSYM    DATA     WORD      PCA0CP1
      000000EBH   SFRSYM    DATA     WORD      PCA0CP2
      00000084H   SFRSYM    DATA     BYTE      CRC0CN0
      0000008CH   SFRSYM    DATA     BYTE      TH0
      000000B8H.4 SFRSYM    DATA     BIT       IP_PS0
      0000008DH   SFRSYM    DATA     BYTE      TH1
      000000FAH   SFRSYM    DATA     BYTE      PCA0H
      000000B8H.1 SFRSYM    DATA     BIT       IP_PT0
      000000B8H.3 SFRSYM    DATA     BIT       IP_PT1
      000000C0H.2 SFRSYM    DATA     BIT       SMB0CN0_ARBLOST
      000000B8H.5 SFRSYM    DATA     BIT       IP_PT2
      0000008AH   SFRSYM    DATA     BYTE      TL0
      000000AAH   SFRSYM    DATA     BYTE      CS0CF
      000000F8H.1 SFRSYM    DATA     BIT       SPI0CN0_TXBMT
      000000D0H.5 SFRSYM    DATA     BIT       PSW_F0
      000000A8H.6 SFRSYM    DATA     BIT       IE_ESPI0
      0000008BH   SFRSYM    DATA     BYTE      TL1
      000000F9H   SFRSYM    DATA     BYTE      PCA0L
      000000C0H   SFRSYM    DATA     BIT       SMB0CN0_SI
      000000D0H.1 SFRSYM    DATA     BIT       PSW_F1
      00000080H   SFRSYM    DATA     BIT       P0_B0
      000000B8H   SFRSYM    DATA     BIT       IP_PX0
      00000090H   SFRSYM    DATA     BIT       P1_B0
      00000080H.1 SFRSYM    DATA     BIT       P0_B1
      000000B8H.2 SFRSYM    DATA     BIT       IP_PX1
      000000EEH   SFRSYM    DATA     BYTE      CS0DH
      0000009BH   SFRSYM    DATA     BYTE      CMP0CN0
      00000088H.1 SFRSYM    DATA     BIT       TCON_IE0
      00000090H.1 SFRSYM    DATA     BIT       P1_B1
      00000080H.2 SFRSYM    DATA     BIT       P0_B2
      00000088H.3 SFRSYM    DATA     BIT       TCON_IE1
      00000090H.2 SFRSYM    DATA     BIT       P1_B2
      00000080H.3 SFRSYM    DATA     BIT       P0_B3
      000000C0H   SFRSYM    DATA     BYTE      SMB0CN0
      00000090H.3 SFRSYM    DATA     BIT       P1_B3
      00000080H.4 SFRSYM    DATA     BIT       P0_B4
      00000090H.4 SFRSYM    DATA     BIT       P1_B4
      00000080H.5 SFRSYM    DATA     BIT       P0_B5
      000000EDH   SFRSYM    DATA     BYTE      CS0DL
      00000090H.5 SFRSYM    DATA     BIT       P1_B5
      00000080H.6 SFRSYM    DATA     BIT       P0_B6
      00000090H.6 SFRSYM    DATA     BIT       P1_B6
      00000080H.7 SFRSYM    DATA     BIT       P0_B7
      00000090H.7 SFRSYM    DATA     BIT       P1_B7
      000000A0H.7 SFRSYM    DATA     BIT       P2_B7
      00000083H   SFRSYM    DATA     BYTE      DPH
      000000C4H   SFRSYM    DATA     BYTE      ADC0GTH
      000000C8H.7 SFRSYM    DATA     BIT       TMR2CN0_TF2H
      000000C8H.3 SFRSYM    DATA     BIT       TMR2CN0_T2SPLIT
      000000D0H.6 SFRSYM    DATA     BIT       PSW_AC
      000000F8H   SFRSYM    DATA     BYTE      SPI0CN0
      000000B3H   SFRSYM    DATA     BYTE      HFO0CAL
      000000DEH   SFRSYM    DATA     BYTE      CS0SE
      00000088H.5 SFRSYM    DATA     BIT       TCON_TF0
      00000098H   SFRSYM    DATA     BIT       SCON0_RI
LX51 LINKER/LOCATER V4.66.30.0                                                        07/11/2017  21:49:04  PAGE 53


      00000082H   SFRSYM    DATA     BYTE      DPL
      00000088H.7 SFRSYM    DATA     BIT       TCON_TF1
      00000099H   SFRSYM    DATA     BYTE      SBUF0
      00000087H   SFRSYM    DATA     BYTE      PCON0
      000000B9H   SFRSYM    DATA     BYTE      IREF0CF
      000000C3H   SFRSYM    DATA     BYTE      ADC0GTL
      000000C8H.6 SFRSYM    DATA     BIT       TMR2CN0_TF2L
      00000098H.1 SFRSYM    DATA     BIT       SCON0_TI
      000000E8H   SFRSYM    DATA     BIT       ADC0CN0_ADCM0
      000000C6H   SFRSYM    DATA     BYTE      ADC0LTH
      00000088H   SFRSYM    DATA     BIT       TCON_IT0
      000000B0H.1 SFRSYM    DATA     BIT       CS0CN0_CSPME
      000000E8H.1 SFRSYM    DATA     BIT       ADC0CN0_ADCM1
      000000EFH   SFRSYM    DATA     BYTE      RSTSRC
      000000D7H   SFRSYM    DATA     BYTE      P0MAT
      00000086H   SFRSYM    DATA     BYTE      CRC0DAT
      00000088H.2 SFRSYM    DATA     BIT       TCON_IT1
      000000E8H.2 SFRSYM    DATA     BIT       ADC0CN0_ADCM2
      00000098H   SFRSYM    DATA     BYTE      SCON0
      000000CFH   SFRSYM    DATA     BYTE      P1MAT
      000000DEH   SFRSYM    DATA     BYTE      CS0PM
      000000E8H.3 SFRSYM    DATA     BIT       ADC0CN0_ADWINT
      000000E8H.4 SFRSYM    DATA     BIT       ADC0CN0_ADBUSY
      000000F5H   SFRSYM    DATA     BYTE      SMB0ADM
      000000C5H   SFRSYM    DATA     BYTE      ADC0LTL
      000000F8H.5 SFRSYM    DATA     BIT       SPI0CN0_MODF
      000000B8H.6 SFRSYM    DATA     BIT       IP_PSPI0
      000000B0H.6 SFRSYM    DATA     BIT       CS0CN0_CSEOS
      000000C8H   SFRSYM    DATA     BYTE      TMR2CN0
      00000091H   SFRSYM    DATA     BYTE      TMR3CN0
      000000F4H   SFRSYM    DATA     BYTE      SMB0ADR
      00000088H.4 SFRSYM    DATA     BIT       TCON_TR0
      000000B0H.5 SFRSYM    DATA     BIT       CS0CN0_CSINT
      000000ABH   SFRSYM    DATA     BYTE      CS0MX
      000000C8H.4 SFRSYM    DATA     BIT       TMR2CN0_TF2CEN
      00000088H.6 SFRSYM    DATA     BIT       TCON_TR1
      000000C2H   SFRSYM    DATA     BYTE      SMB0DAT
      00000099H   SFRSYM    DATA     BYTE      P0DRV
      000000DDH   SFRSYM    DATA     BYTE      CS0SS
      000000CDH   SFRSYM    DATA     BYTE      TMR2H
      000000A1H   SFRSYM    DATA     BYTE      SPI0CFG
      0000009BH   SFRSYM    DATA     BYTE      P1DRV
      00000095H   SFRSYM    DATA     BYTE      TMR3H
      0000009DH   SFRSYM    DATA     BYTE      P2DRV
      0000009AH   SFRSYM    DATA     BYTE      CRC0CNT
      000000CCH   SFRSYM    DATA     BYTE      TMR2L
      000000ACH   SFRSYM    DATA     BYTE      RTC0ADR
      000000F8H.7 SFRSYM    DATA     BIT       SPI0CN0_SPIF
      00000094H   SFRSYM    DATA     BYTE      TMR3L
      000000BBH   SFRSYM    DATA     BYTE      ADC0PWR
      000000A8H.7 SFRSYM    DATA     BIT       IE_EA
      000000ADH   SFRSYM    DATA     BYTE      RTC0DAT
      000000B0H.3 SFRSYM    DATA     BIT       CS0CN0_CSCMPEN
      000000B6H   SFRSYM    DATA     BYTE      FLSCL
      000000C8H.5 SFRSYM    DATA     BIT       TMR2CN0_TF2LEN
      000000F8H.6 SFRSYM    DATA     BIT       SPI0CN0_WCOL
      000000F8H.2 SFRSYM    DATA     BIT       SPI0CN0_NSSMD0
      000000D0H.7 SFRSYM    DATA     BIT       PSW_CY
      000000A3H   SFRSYM    DATA     BYTE      SPI0DAT
      000000F8H.3 SFRSYM    DATA     BIT       SPI0CN0_NSSMD1
      000000BDH   SFRSYM    DATA     WORD      ADC0
      0000008EH   SFRSYM    DATA     BYTE      TOFFH
LX51 LINKER/LOCATER V4.66.30.0                                                        07/11/2017  21:49:04  PAGE 54


      000000D0H   SFRSYM    DATA     BYTE      PSW
      000000DFH   SFRSYM    DATA     BYTE      PCA0PWM
      000000E2H   SFRSYM    DATA     BYTE      REVID
      0000008DH   SFRSYM    DATA     BYTE      TOFFL
      000000B7H   SFRSYM    DATA     BYTE      FLKEY
      000000BAH   SFRSYM    DATA     BYTE      ADC0AC

      0100193FH   BLOCK     CODE     ---       LVL=0
      00000001H   SYMBOL    DATA     ---       angle
      0100193FH   LINE      CODE     ---       #15
      0100193FH   LINE      CODE     ---       #16
      0100193FH   LINE      CODE     ---       #17
      0100194BH   LINE      CODE     ---       #18
      0100194BH   LINE      CODE     ---       #19
      01001953H   LINE      CODE     ---       #20
      01001955H   LINE      CODE     ---       #21
      ---         BLOCKEND  ---      ---       LVL=0

      01000F0EH   BLOCK     CODE     ---       LVL=0
      01000F0EH   BLOCK     CODE     NEAR LAB  LVL=1
      00000005H   SYMBOL    DATA     BYTE      sensor_index
      0000001BH   SYMBOL    DATA     WORD      touch_sum
      ---         BLOCKEND  ---      ---       LVL=1
      01000F0EH   LINE      CODE     ---       #23
      01000F0EH   LINE      CODE     ---       #24
      01000F0EH   LINE      CODE     ---       #26
      01000F13H   LINE      CODE     ---       #29
      01000F2EH   LINE      CODE     ---       #32
      01000F2EH   LINE      CODE     ---       #35
      01000F30H   LINE      CODE     ---       #36
      01000F30H   LINE      CODE     ---       #37
      01000F5EH   LINE      CODE     ---       #38
      01000F5EH   LINE      CODE     ---       #39
      01000F80H   LINE      CODE     ---       #40
      01000F80H   LINE      CODE     ---       #41
      01000F84H   LINE      CODE     ---       #49
      01000F8FH   LINE      CODE     ---       #50
      01000F8FH   LINE      CODE     ---       #51
      01000F91H   LINE      CODE     ---       #52
      01000F91H   LINE      CODE     ---       #53
      01000F91H   LINE      CODE     ---       #55
      01000F92H   LINE      CODE     ---       #56
      ---         BLOCKEND  ---      ---       LVL=0

      01000681H   BLOCK     CODE     ---       LVL=0
      01000681H   BLOCK     CODE     NEAR LAB  LVL=1
      00000005H   SYMBOL    DATA     BYTE      sensor_index
      0000001BH   SYMBOL    DATA     WORD      angle
      0000001DH   SYMBOL    DATA     ---       deltas
      00000023H   SYMBOL    DATA     ---       weights
      00000029H   SYMBOL    DATA     WORD      offset
      ---         BLOCKEND  ---      ---       LVL=1
      01000681H   LINE      CODE     ---       #66
      01000681H   LINE      CODE     ---       #67
      01000681H   LINE      CODE     ---       #69
      01000686H   LINE      CODE     ---       #76
      01000688H   LINE      CODE     ---       #77
      01000688H   LINE      CODE     ---       #78
      010006B6H   LINE      CODE     ---       #79
      010006B6H   LINE      CODE     ---       #80
      010006C0H   LINE      CODE     ---       #81
      010006C2H   LINE      CODE     ---       #83
LX51 LINKER/LOCATER V4.66.30.0                                                        07/11/2017  21:49:04  PAGE 55


      010006C2H   LINE      CODE     ---       #84
      010006E7H   LINE      CODE     ---       #85
      010006E7H   LINE      CODE     ---       #86
      010006EBH   LINE      CODE     ---       #90
      01000700H   LINE      CODE     ---       #92
      01000700H   LINE      CODE     ---       #96
      01000706H   LINE      CODE     ---       #97
      0100070CH   LINE      CODE     ---       #98
      01000712H   LINE      CODE     ---       #101
      01000718H   LINE      CODE     ---       #102
      0100071AH   LINE      CODE     ---       #105
      0100072FH   LINE      CODE     ---       #107
      0100072FH   LINE      CODE     ---       #111
      01000735H   LINE      CODE     ---       #112
      0100073BH   LINE      CODE     ---       #113
      01000741H   LINE      CODE     ---       #116
      01000747H   LINE      CODE     ---       #117
      01000749H   LINE      CODE     ---       #121
      01000749H   LINE      CODE     ---       #125
      0100074FH   LINE      CODE     ---       #126
      01000755H   LINE      CODE     ---       #127
      0100075BH   LINE      CODE     ---       #130
      01000761H   LINE      CODE     ---       #131
      01000761H   LINE      CODE     ---       #136
      010007ABH   LINE      CODE     ---       #139
      010007BCH   LINE      CODE     ---       #142
      010007C8H   LINE      CODE     ---       #145
      010007D1H   LINE      CODE     ---       #147
      010007D5H   LINE      CODE     ---       #148
      ---         BLOCKEND  ---      ---       LVL=0

      ---         MODULE    ---      ---       MAIN
      01001276H   PUBLIC    CODE     ---       _SimpleDelay
      0100159BH   PUBLIC    CODE     ---       _UpdateLed
      01000E81H   PUBLIC    CODE     ---       main
      000000A2H   SFRSYM    DATA     BYTE      SPI0CKR
      00000080H   SFRSYM    DATA     BYTE      P0
      000000D0H.2 SFRSYM    DATA     BIT       PSW_OV
      000000B1H   SFRSYM    DATA     BYTE      XOSC0CN
      00000090H   SFRSYM    DATA     BYTE      P1
      000000A0H   SFRSYM    DATA     BYTE      P2
      00000097H   SFRSYM    DATA     BYTE      ADC0CF
      000000C0H.7 SFRSYM    DATA     BIT       SMB0CN0_MASTER
      000000F9H   SFRSYM    DATA     WORD      PCA0
      000000AEH   SFRSYM    DATA     BYTE      RTC0KEY
      000000E6H   SFRSYM    DATA     BYTE      EIE1
      000000C0H.1 SFRSYM    DATA     BIT       SMB0CN0_ACK
      000000E7H   SFRSYM    DATA     BYTE      EIE2
      0000008FH   SFRSYM    DATA     BYTE      PSCTL
      000000E4H   SFRSYM    DATA     BYTE      IT01CF
      000000B0H   SFRSYM    DATA     BYTE      CS0CN0
      000000C0H.6 SFRSYM    DATA     BIT       SMB0CN0_TXMODE
      000000E3H   SFRSYM    DATA     BYTE      DERIVID
      000000AFH   SFRSYM    DATA     BYTE      CS0MD1
      000000A7H   SFRSYM    DATA     BYTE      SFRPAGE
      000000F3H   SFRSYM    DATA     BYTE      CS0MD2
      000000A4H   SFRSYM    DATA     BYTE      P0MDOUT
      000000F3H   SFRSYM    DATA     BYTE      CS0MD3
      000000A5H   SFRSYM    DATA     BYTE      P1MDOUT
      000000E8H.5 SFRSYM    DATA     BIT       ADC0CN0_ADINT
      000000CBH   SFRSYM    DATA     BYTE      TMR2RLH
      000000A6H   SFRSYM    DATA     BYTE      P2MDOUT
LX51 LINKER/LOCATER V4.66.30.0                                                        07/11/2017  21:49:04  PAGE 56


      000000A8H   SFRSYM    DATA     BYTE      IE
      00000093H   SFRSYM    DATA     BYTE      TMR3RLH
      000000F6H   SFRSYM    DATA     BYTE      EIP1
      000000F7H   SFRSYM    DATA     BYTE      EIP2
      00000098H.2 SFRSYM    DATA     BIT       SCON0_RB8
      000000CAH   SFRSYM    DATA     BYTE      TMR2RLL
      000000FCH   SFRSYM    DATA     BYTE      PCA0CPH0
      00000092H   SFRSYM    DATA     BYTE      TMR3RLL
      000000EAH   SFRSYM    DATA     BYTE      PCA0CPH1
      00000098H.3 SFRSYM    DATA     BIT       SCON0_TB8
      000000B0H.7 SFRSYM    DATA     BIT       CS0CN0_CSEN
      000000F0H   SFRSYM    DATA     BIT       B_B0
      00000082H   SFRSYM    DATA     WORD      DP
      000000ECH   SFRSYM    DATA     BYTE      PCA0CPH2
      000000F0H.1 SFRSYM    DATA     BIT       B_B1
      000000C3H   SFRSYM    DATA     WORD      ADC0GT
      000000F0H.2 SFRSYM    DATA     BIT       B_B2
      000000FBH   SFRSYM    DATA     BYTE      PCA0CPL0
      000000F0H.3 SFRSYM    DATA     BIT       B_B3
      000000D9H   SFRSYM    DATA     BYTE      PCA0MD
      000000DAH   SFRSYM    DATA     BYTE      PCA0CPM0
      000000E9H   SFRSYM    DATA     BYTE      PCA0CPL1
      000000F0H.4 SFRSYM    DATA     BIT       B_B4
      000000DBH   SFRSYM    DATA     BYTE      PCA0CPM1
      000000EBH   SFRSYM    DATA     BYTE      PCA0CPL2
      000000F0H.5 SFRSYM    DATA     BIT       B_B5
      000000DCH   SFRSYM    DATA     BYTE      PCA0CPM2
      000000B8H   SFRSYM    DATA     BYTE      IP
      000000BCH   SFRSYM    DATA     BYTE      ADC0TK
      000000F0H.6 SFRSYM    DATA     BIT       B_B6
      000000C5H   SFRSYM    DATA     WORD      ADC0LT
      000000D6H   SFRSYM    DATA     BYTE      IREF0CN0
      00000098H.5 SFRSYM    DATA     BIT       SCON0_MCE
      000000F0H.7 SFRSYM    DATA     BIT       B_B7
      000000E1H   SFRSYM    DATA     BYTE      XBR0
      000000C1H   SFRSYM    DATA     BYTE      SMB0CF
      000000E2H   SFRSYM    DATA     BYTE      XBR1
      000000D2H   SFRSYM    DATA     BYTE      CS0SCAN0
      000000C0H.5 SFRSYM    DATA     BIT       SMB0CN0_STA
      000000E3H   SFRSYM    DATA     BYTE      XBR2
      000000D3H   SFRSYM    DATA     BYTE      CS0SCAN1
      00000096H   SFRSYM    DATA     BYTE      ADC0MX
      000000E0H   SFRSYM    DATA     BIT       ACC_ACC0
      000000D1H   SFRSYM    DATA     BYTE      REF0CN
      000000B2H   SFRSYM    DATA     BYTE      HFO0CN
      0000008EH   SFRSYM    DATA     BYTE      CKCON0
      000000E0H.1 SFRSYM    DATA     BIT       ACC_ACC1
      000000C9H   SFRSYM    DATA     BYTE      REG0CN
      00000085H   SFRSYM    DATA     BYTE      CRC0IN
      000000C8H.2 SFRSYM    DATA     BIT       TMR2CN0_TR2
      000000E0H.2 SFRSYM    DATA     BIT       ACC_ACC2
      000000E0H.3 SFRSYM    DATA     BIT       ACC_ACC3
      00000081H   SFRSYM    DATA     BYTE      SP
      0000009DH   SFRSYM    DATA     BYTE      CMP0MD
      000000E0H.4 SFRSYM    DATA     BIT       ACC_ACC4
      000000D8H   SFRSYM    DATA     BIT       PCA0CN0_CCF0
      000000E0H.5 SFRSYM    DATA     BIT       ACC_ACC5
      000000D8H.1 SFRSYM    DATA     BIT       PCA0CN0_CCF1
      000000E0H.6 SFRSYM    DATA     BIT       ACC_ACC6
      000000CCH   SFRSYM    DATA     WORD      TMR2
      000000D8H.2 SFRSYM    DATA     BIT       PCA0CN0_CCF2
      000000E0H.7 SFRSYM    DATA     BIT       ACC_ACC7
LX51 LINKER/LOCATER V4.66.30.0                                                        07/11/2017  21:49:04  PAGE 57


      00000094H   SFRSYM    DATA     WORD      TMR3
      000000B0H   SFRSYM    DATA     BIT       CS0CN0_CSCMPF
      000000C0H.3 SFRSYM    DATA     BIT       SMB0CN0_ACKRQ
      000000FFH   SFRSYM    DATA     BYTE      VDM0CN
      000000F1H   SFRSYM    DATA     BYTE      P0MDIN
      00000098H.4 SFRSYM    DATA     BIT       SCON0_REN
      000000F2H   SFRSYM    DATA     BYTE      P1MDIN
      000000FEH   SFRSYM    DATA     BYTE      CS0THH
      000000C0H.4 SFRSYM    DATA     BIT       SMB0CN0_STO
      000000B5H   SFRSYM    DATA     BYTE      PMU0CF
      000000C7H   SFRSYM    DATA     BYTE      P0MASK
      000000BFH   SFRSYM    DATA     BYTE      P1MASK
      000000FDH   SFRSYM    DATA     BYTE      CS0THL
      000000D0H.3 SFRSYM    DATA     BIT       PSW_RS0
      000000D8H.7 SFRSYM    DATA     BIT       PCA0CN0_CF
      000000F8H.4 SFRSYM    DATA     BIT       SPI0CN0_RXOVRN
      000000D0H.4 SFRSYM    DATA     BIT       PSW_RS1
      000000C8H   SFRSYM    DATA     BIT       TMR2CN0_T2XCLK0
      000000C8H.1 SFRSYM    DATA     BIT       TMR2CN0_T2XCLK1
      000000E8H.7 SFRSYM    DATA     BIT       ADC0CN0_ADEN
      00000089H   SFRSYM    DATA     BYTE      TMOD
      00000088H   SFRSYM    DATA     BYTE      TCON
      000000B5H   SFRSYM    DATA     BYTE      PMU0MD
      000000CEH   SFRSYM    DATA     BYTE      PMU0FL
      0000009CH   SFRSYM    DATA     BYTE      CRC0FLIP
      000000D0H   SFRSYM    DATA     BIT       PSW_PARITY
      000000A8H.4 SFRSYM    DATA     BIT       IE_ES0
      0000009FH   SFRSYM    DATA     BYTE      CMP0MX
      000000A8H.1 SFRSYM    DATA     BIT       IE_ET0
      000000A8H.3 SFRSYM    DATA     BIT       IE_ET1
      000000D4H   SFRSYM    DATA     BYTE      P0SKIP
      000000A8H.5 SFRSYM    DATA     BIT       IE_ET2
      000000D5H   SFRSYM    DATA     BYTE      P1SKIP
      000000E8H   SFRSYM    DATA     BYTE      ADC0CN0
      000000A8H   SFRSYM    DATA     BIT       IE_EX0
      000000D8H.6 SFRSYM    DATA     BIT       PCA0CN0_CR
      000000A8H.2 SFRSYM    DATA     BIT       IE_EX1
      00000098H.7 SFRSYM    DATA     BIT       SCON0_SMODE
      000000A9H   SFRSYM    DATA     BYTE      CLKSEL
      000000F8H   SFRSYM    DATA     BIT       SPI0CN0_SPIEN
      000000F0H   SFRSYM    DATA     BYTE      B
      000000BEH   SFRSYM    DATA     BYTE      ADC0H
      0000009EH   SFRSYM    DATA     BYTE      CRC0AUTO
      000000B0H.4 SFRSYM    DATA     BIT       CS0CN0_CSBUSY
      000000E8H.6 SFRSYM    DATA     BIT       ADC0CN0_ADBMEN
      000000CAH   SFRSYM    DATA     WORD      TMR2RL
      000000BDH   SFRSYM    DATA     BYTE      ADC0L
      00000092H   SFRSYM    DATA     WORD      TMR3RL
      000000D8H   SFRSYM    DATA     BYTE      PCA0CN0
      000000E0H   SFRSYM    DATA     BYTE      ACC
      000000FBH   SFRSYM    DATA     WORD      PCA0CP0
      000000E9H   SFRSYM    DATA     WORD      PCA0CP1
      000000EBH   SFRSYM    DATA     WORD      PCA0CP2
      00000084H   SFRSYM    DATA     BYTE      CRC0CN0
      0000008CH   SFRSYM    DATA     BYTE      TH0
      000000B8H.4 SFRSYM    DATA     BIT       IP_PS0
      0000008DH   SFRSYM    DATA     BYTE      TH1
      000000FAH   SFRSYM    DATA     BYTE      PCA0H
      000000B8H.1 SFRSYM    DATA     BIT       IP_PT0
      000000B8H.3 SFRSYM    DATA     BIT       IP_PT1
      000000C0H.2 SFRSYM    DATA     BIT       SMB0CN0_ARBLOST
      000000B8H.5 SFRSYM    DATA     BIT       IP_PT2
LX51 LINKER/LOCATER V4.66.30.0                                                        07/11/2017  21:49:04  PAGE 58


      0000008AH   SFRSYM    DATA     BYTE      TL0
      000000AAH   SFRSYM    DATA     BYTE      CS0CF
      000000F8H.1 SFRSYM    DATA     BIT       SPI0CN0_TXBMT
      000000D0H.5 SFRSYM    DATA     BIT       PSW_F0
      000000A8H.6 SFRSYM    DATA     BIT       IE_ESPI0
      0000008BH   SFRSYM    DATA     BYTE      TL1
      000000F9H   SFRSYM    DATA     BYTE      PCA0L
      000000C0H   SFRSYM    DATA     BIT       SMB0CN0_SI
      000000D0H.1 SFRSYM    DATA     BIT       PSW_F1
      00000080H   SFRSYM    DATA     BIT       P0_B0
      000000B8H   SFRSYM    DATA     BIT       IP_PX0
      00000090H   SFRSYM    DATA     BIT       P1_B0
      00000080H.1 SFRSYM    DATA     BIT       P0_B1
      000000B8H.2 SFRSYM    DATA     BIT       IP_PX1
      000000EEH   SFRSYM    DATA     BYTE      CS0DH
      0000009BH   SFRSYM    DATA     BYTE      CMP0CN0
      00000088H.1 SFRSYM    DATA     BIT       TCON_IE0
      00000090H.1 SFRSYM    DATA     BIT       P1_B1
      00000080H.2 SFRSYM    DATA     BIT       P0_B2
      00000088H.3 SFRSYM    DATA     BIT       TCON_IE1
      00000090H.2 SFRSYM    DATA     BIT       P1_B2
      00000080H.3 SFRSYM    DATA     BIT       P0_B3
      000000C0H   SFRSYM    DATA     BYTE      SMB0CN0
      00000090H.3 SFRSYM    DATA     BIT       P1_B3
      00000080H.4 SFRSYM    DATA     BIT       P0_B4
      00000090H.4 SFRSYM    DATA     BIT       P1_B4
      00000080H.5 SFRSYM    DATA     BIT       P0_B5
      000000EDH   SFRSYM    DATA     BYTE      CS0DL
      00000090H.5 SFRSYM    DATA     BIT       P1_B5
      00000080H.6 SFRSYM    DATA     BIT       P0_B6
      00000090H.6 SFRSYM    DATA     BIT       P1_B6
      00000080H.7 SFRSYM    DATA     BIT       P0_B7
      00000090H.7 SFRSYM    DATA     BIT       P1_B7
      000000A0H.7 SFRSYM    DATA     BIT       P2_B7
      00000083H   SFRSYM    DATA     BYTE      DPH
      000000C4H   SFRSYM    DATA     BYTE      ADC0GTH
      000000C8H.7 SFRSYM    DATA     BIT       TMR2CN0_TF2H
      000000C8H.3 SFRSYM    DATA     BIT       TMR2CN0_T2SPLIT
      000000D0H.6 SFRSYM    DATA     BIT       PSW_AC
      000000F8H   SFRSYM    DATA     BYTE      SPI0CN0
      000000B3H   SFRSYM    DATA     BYTE      HFO0CAL
      000000DEH   SFRSYM    DATA     BYTE      CS0SE
      00000088H.5 SFRSYM    DATA     BIT       TCON_TF0
      00000098H   SFRSYM    DATA     BIT       SCON0_RI
      00000082H   SFRSYM    DATA     BYTE      DPL
      00000088H.7 SFRSYM    DATA     BIT       TCON_TF1
      00000099H   SFRSYM    DATA     BYTE      SBUF0
      00000087H   SFRSYM    DATA     BYTE      PCON0
      000000B9H   SFRSYM    DATA     BYTE      IREF0CF
      000000C3H   SFRSYM    DATA     BYTE      ADC0GTL
      000000C8H.6 SFRSYM    DATA     BIT       TMR2CN0_TF2L
      00000098H.1 SFRSYM    DATA     BIT       SCON0_TI
      000000E8H   SFRSYM    DATA     BIT       ADC0CN0_ADCM0
      000000C6H   SFRSYM    DATA     BYTE      ADC0LTH
      00000088H   SFRSYM    DATA     BIT       TCON_IT0
      000000B0H.1 SFRSYM    DATA     BIT       CS0CN0_CSPME
      000000E8H.1 SFRSYM    DATA     BIT       ADC0CN0_ADCM1
      000000EFH   SFRSYM    DATA     BYTE      RSTSRC
      000000D7H   SFRSYM    DATA     BYTE      P0MAT
      00000086H   SFRSYM    DATA     BYTE      CRC0DAT
      00000088H.2 SFRSYM    DATA     BIT       TCON_IT1
      000000E8H.2 SFRSYM    DATA     BIT       ADC0CN0_ADCM2
LX51 LINKER/LOCATER V4.66.30.0                                                        07/11/2017  21:49:04  PAGE 59


      00000098H   SFRSYM    DATA     BYTE      SCON0
      000000CFH   SFRSYM    DATA     BYTE      P1MAT
      000000DEH   SFRSYM    DATA     BYTE      CS0PM
      000000E8H.3 SFRSYM    DATA     BIT       ADC0CN0_ADWINT
      000000E8H.4 SFRSYM    DATA     BIT       ADC0CN0_ADBUSY
      000000F5H   SFRSYM    DATA     BYTE      SMB0ADM
      000000C5H   SFRSYM    DATA     BYTE      ADC0LTL
      000000F8H.5 SFRSYM    DATA     BIT       SPI0CN0_MODF
      000000B8H.6 SFRSYM    DATA     BIT       IP_PSPI0
      000000B0H.6 SFRSYM    DATA     BIT       CS0CN0_CSEOS
      000000C8H   SFRSYM    DATA     BYTE      TMR2CN0
      00000091H   SFRSYM    DATA     BYTE      TMR3CN0
      000000F4H   SFRSYM    DATA     BYTE      SMB0ADR
      00000088H.4 SFRSYM    DATA     BIT       TCON_TR0
      000000B0H.5 SFRSYM    DATA     BIT       CS0CN0_CSINT
      000000ABH   SFRSYM    DATA     BYTE      CS0MX
      000000C8H.4 SFRSYM    DATA     BIT       TMR2CN0_TF2CEN
      00000088H.6 SFRSYM    DATA     BIT       TCON_TR1
      000000C2H   SFRSYM    DATA     BYTE      SMB0DAT
      00000099H   SFRSYM    DATA     BYTE      P0DRV
      000000DDH   SFRSYM    DATA     BYTE      CS0SS
      000000CDH   SFRSYM    DATA     BYTE      TMR2H
      000000A1H   SFRSYM    DATA     BYTE      SPI0CFG
      0000009BH   SFRSYM    DATA     BYTE      P1DRV
      00000095H   SFRSYM    DATA     BYTE      TMR3H
      0000009DH   SFRSYM    DATA     BYTE      P2DRV
      0000009AH   SFRSYM    DATA     BYTE      CRC0CNT
      000000CCH   SFRSYM    DATA     BYTE      TMR2L
      000000ACH   SFRSYM    DATA     BYTE      RTC0ADR
      000000F8H.7 SFRSYM    DATA     BIT       SPI0CN0_SPIF
      00000094H   SFRSYM    DATA     BYTE      TMR3L
      000000BBH   SFRSYM    DATA     BYTE      ADC0PWR
      000000A8H.7 SFRSYM    DATA     BIT       IE_EA
      000000ADH   SFRSYM    DATA     BYTE      RTC0DAT
      000000B0H.3 SFRSYM    DATA     BIT       CS0CN0_CSCMPEN
      000000B6H   SFRSYM    DATA     BYTE      FLSCL
      000000C8H.5 SFRSYM    DATA     BIT       TMR2CN0_TF2LEN
      000000F8H.6 SFRSYM    DATA     BIT       SPI0CN0_WCOL
      000000F8H.2 SFRSYM    DATA     BIT       SPI0CN0_NSSMD0
      000000D0H.7 SFRSYM    DATA     BIT       PSW_CY
      000000A3H   SFRSYM    DATA     BYTE      SPI0DAT
      000000F8H.3 SFRSYM    DATA     BIT       SPI0CN0_NSSMD1
      000000BDH   SFRSYM    DATA     WORD      ADC0
      0000008EH   SFRSYM    DATA     BYTE      TOFFH
      000000D0H   SFRSYM    DATA     BYTE      PSW
      000000DFH   SFRSYM    DATA     BYTE      PCA0PWM
      000000E2H   SFRSYM    DATA     BYTE      REVID
      0000008DH   SFRSYM    DATA     BYTE      TOFFL
      000000B7H   SFRSYM    DATA     BYTE      FLKEY
      000000BAH   SFRSYM    DATA     BYTE      ADC0AC

      01000E81H   BLOCK     CODE     ---       LVL=0
      01000E81H   LINE      CODE     ---       #26
      01000E81H   LINE      CODE     ---       #28
      01000E84H   LINE      CODE     ---       #29
      01000E87H   LINE      CODE     ---       #32
      01000E8AH   LINE      CODE     ---       #35
      01000E8FH   LINE      CODE     ---       #36
      01000E92H   LINE      CODE     ---       #38
      01000E97H   LINE      CODE     ---       #39
      01000E9AH   LINE      CODE     ---       #41
      01000E9FH   LINE      CODE     ---       #42
LX51 LINKER/LOCATER V4.66.30.0                                                        07/11/2017  21:49:04  PAGE 60


      01000EA2H   LINE      CODE     ---       #44
      01000EA7H   LINE      CODE     ---       #45
      01000EAAH   LINE      CODE     ---       #47
      01000EAFH   LINE      CODE     ---       #48
      01000EB2H   LINE      CODE     ---       #50
      01000EB4H   LINE      CODE     ---       #53
      01000EB4H   LINE      CODE     ---       #60
      01000EB7H   LINE      CODE     ---       #65
      01000EBAH   LINE      CODE     ---       #68
      01000EBDH   LINE      CODE     ---       #70
      01000EC2H   LINE      CODE     ---       #71
      01000EC5H   LINE      CODE     ---       #72
      01000EC7H   LINE      CODE     ---       #73
      01000EC7H   LINE      CODE     ---       #74
      01000ECDH   LINE      CODE     ---       #76
      01000ED7H   LINE      CODE     ---       #78
      01000EDEH   LINE      CODE     ---       #79
      01000EE3H   LINE      CODE     ---       #80
      01000EE3H   LINE      CODE     ---       #82
      01000EEAH   LINE      CODE     ---       #83
      01000F00H   LINE      CODE     ---       #84
      01000F05H   LINE      CODE     ---       #85
      01000F07H   LINE      CODE     ---       #86
      01000F07H   LINE      CODE     ---       #87
      01000F0CH   LINE      CODE     ---       #88
      01000F0CH   LINE      CODE     ---       #89
      01000F0CH   LINE      CODE     ---       #90
      01000F0CH   LINE      CODE     ---       #91
      ---         BLOCKEND  ---      ---       LVL=0

      0100159BH   BLOCK     CODE     ---       LVL=0
      00000006H   SYMBOL    DATA     WORD      angle
      0100159BH   BLOCK     CODE     NEAR LAB  LVL=1
      0000004CH   SYMBOL    DATA     BYTE      lastIntensity
      0000001BH   SYMBOL    DATA     BYTE      intensity
      ---         BLOCKEND  ---      ---       LVL=1
      0100159BH   LINE      CODE     ---       #97
      0100159BH   LINE      CODE     ---       #98
      0100159BH   LINE      CODE     ---       #102
      010015AFH   LINE      CODE     ---       #104
      010015B5H   LINE      CODE     ---       #105
      010015BCH   LINE      CODE     ---       #106
      010015C7H   LINE      CODE     ---       #107
      010015CAH   LINE      CODE     ---       #108
      010015CAH   LINE      CODE     ---       #109
      ---         BLOCKEND  ---      ---       LVL=0

      0100126EH   BLOCK     CODE     VOID      LVL=0
      ---         BLOCKEND  ---      ---       LVL=0

      01001276H   BLOCK     CODE     ---       LVL=0
      0000001BH   SYMBOL    DATA     DWORD     delayLen
      0000001FH   SYMBOL    DATA     DWORD     i
      0100127EH   BLOCK     CODE     NEAR LAB  LVL=1
      0000001FH   SYMBOL    DATA     DWORD     i
      ---         BLOCKEND  ---      ---       LVL=1
      01001276H   LINE      CODE     ---       #113
      0100127EH   LINE      CODE     ---       #114
      0100127EH   LINE      CODE     ---       #115
      01001287H   LINE      CODE     ---       #117
      010012A5H   LINE      CODE     ---       #118
      010012A5H   LINE      CODE     ---       #119
LX51 LINKER/LOCATER V4.66.30.0                                                        07/11/2017  21:49:04  PAGE 61


      010012C0H   LINE      CODE     ---       #120
      ---         BLOCKEND  ---      ---       LVL=0

      ---         MODULE    ---      ---       TICK
      01001A2EH   PUBLIC    CODE     ---       TIMER3_ISR
      010018BDH   PUBLIC    CODE     ---       Tick_Init
      000000A2H   SFRSYM    DATA     BYTE      SPI0CKR
      00000080H   SFRSYM    DATA     BYTE      P0
      000000D0H.2 SFRSYM    DATA     BIT       PSW_OV
      000000B1H   SFRSYM    DATA     BYTE      XOSC0CN
      00000090H   SFRSYM    DATA     BYTE      P1
      000000A0H   SFRSYM    DATA     BYTE      P2
      00000097H   SFRSYM    DATA     BYTE      ADC0CF
      000000C0H.7 SFRSYM    DATA     BIT       SMB0CN0_MASTER
      000000F9H   SFRSYM    DATA     WORD      PCA0
      000000AEH   SFRSYM    DATA     BYTE      RTC0KEY
      000000E6H   SFRSYM    DATA     BYTE      EIE1
      000000C0H.1 SFRSYM    DATA     BIT       SMB0CN0_ACK
      000000E7H   SFRSYM    DATA     BYTE      EIE2
      0000008FH   SFRSYM    DATA     BYTE      PSCTL
      000000E4H   SFRSYM    DATA     BYTE      IT01CF
      000000B0H   SFRSYM    DATA     BYTE      CS0CN0
      000000C0H.6 SFRSYM    DATA     BIT       SMB0CN0_TXMODE
      000000E3H   SFRSYM    DATA     BYTE      DERIVID
      000000AFH   SFRSYM    DATA     BYTE      CS0MD1
      000000A7H   SFRSYM    DATA     BYTE      SFRPAGE
      000000F3H   SFRSYM    DATA     BYTE      CS0MD2
      000000A4H   SFRSYM    DATA     BYTE      P0MDOUT
      000000F3H   SFRSYM    DATA     BYTE      CS0MD3
      000000A5H   SFRSYM    DATA     BYTE      P1MDOUT
      000000E8H.5 SFRSYM    DATA     BIT       ADC0CN0_ADINT
      000000CBH   SFRSYM    DATA     BYTE      TMR2RLH
      000000A6H   SFRSYM    DATA     BYTE      P2MDOUT
      000000A8H   SFRSYM    DATA     BYTE      IE
      00000093H   SFRSYM    DATA     BYTE      TMR3RLH
      000000F6H   SFRSYM    DATA     BYTE      EIP1
      000000F7H   SFRSYM    DATA     BYTE      EIP2
      00000098H.2 SFRSYM    DATA     BIT       SCON0_RB8
      000000CAH   SFRSYM    DATA     BYTE      TMR2RLL
      000000FCH   SFRSYM    DATA     BYTE      PCA0CPH0
      00000092H   SFRSYM    DATA     BYTE      TMR3RLL
      000000EAH   SFRSYM    DATA     BYTE      PCA0CPH1
      00000098H.3 SFRSYM    DATA     BIT       SCON0_TB8
      000000B0H.7 SFRSYM    DATA     BIT       CS0CN0_CSEN
      000000F0H   SFRSYM    DATA     BIT       B_B0
      00000082H   SFRSYM    DATA     WORD      DP
      000000ECH   SFRSYM    DATA     BYTE      PCA0CPH2
      000000F0H.1 SFRSYM    DATA     BIT       B_B1
      000000C3H   SFRSYM    DATA     WORD      ADC0GT
      000000F0H.2 SFRSYM    DATA     BIT       B_B2
      000000FBH   SFRSYM    DATA     BYTE      PCA0CPL0
      000000F0H.3 SFRSYM    DATA     BIT       B_B3
      000000D9H   SFRSYM    DATA     BYTE      PCA0MD
      000000DAH   SFRSYM    DATA     BYTE      PCA0CPM0
      000000E9H   SFRSYM    DATA     BYTE      PCA0CPL1
      000000F0H.4 SFRSYM    DATA     BIT       B_B4
      000000DBH   SFRSYM    DATA     BYTE      PCA0CPM1
      000000EBH   SFRSYM    DATA     BYTE      PCA0CPL2
      000000F0H.5 SFRSYM    DATA     BIT       B_B5
      000000DCH   SFRSYM    DATA     BYTE      PCA0CPM2
      000000B8H   SFRSYM    DATA     BYTE      IP
      000000BCH   SFRSYM    DATA     BYTE      ADC0TK
LX51 LINKER/LOCATER V4.66.30.0                                                        07/11/2017  21:49:04  PAGE 62


      000000F0H.6 SFRSYM    DATA     BIT       B_B6
      000000C5H   SFRSYM    DATA     WORD      ADC0LT
      000000D6H   SFRSYM    DATA     BYTE      IREF0CN0
      00000098H.5 SFRSYM    DATA     BIT       SCON0_MCE
      000000F0H.7 SFRSYM    DATA     BIT       B_B7
      000000E1H   SFRSYM    DATA     BYTE      XBR0
      000000C1H   SFRSYM    DATA     BYTE      SMB0CF
      000000E2H   SFRSYM    DATA     BYTE      XBR1
      000000D2H   SFRSYM    DATA     BYTE      CS0SCAN0
      000000C0H.5 SFRSYM    DATA     BIT       SMB0CN0_STA
      000000E3H   SFRSYM    DATA     BYTE      XBR2
      000000D3H   SFRSYM    DATA     BYTE      CS0SCAN1
      00000096H   SFRSYM    DATA     BYTE      ADC0MX
      000000E0H   SFRSYM    DATA     BIT       ACC_ACC0
      000000D1H   SFRSYM    DATA     BYTE      REF0CN
      000000B2H   SFRSYM    DATA     BYTE      HFO0CN
      0000008EH   SFRSYM    DATA     BYTE      CKCON0
      000000E0H.1 SFRSYM    DATA     BIT       ACC_ACC1
      000000C9H   SFRSYM    DATA     BYTE      REG0CN
      00000085H   SFRSYM    DATA     BYTE      CRC0IN
      000000C8H.2 SFRSYM    DATA     BIT       TMR2CN0_TR2
      000000E0H.2 SFRSYM    DATA     BIT       ACC_ACC2
      000000E0H.3 SFRSYM    DATA     BIT       ACC_ACC3
      00000081H   SFRSYM    DATA     BYTE      SP
      0000009DH   SFRSYM    DATA     BYTE      CMP0MD
      000000E0H.4 SFRSYM    DATA     BIT       ACC_ACC4
      000000D8H   SFRSYM    DATA     BIT       PCA0CN0_CCF0
      000000E0H.5 SFRSYM    DATA     BIT       ACC_ACC5
      000000D8H.1 SFRSYM    DATA     BIT       PCA0CN0_CCF1
      000000E0H.6 SFRSYM    DATA     BIT       ACC_ACC6
      000000CCH   SFRSYM    DATA     WORD      TMR2
      000000D8H.2 SFRSYM    DATA     BIT       PCA0CN0_CCF2
      000000E0H.7 SFRSYM    DATA     BIT       ACC_ACC7
      00000094H   SFRSYM    DATA     WORD      TMR3
      000000B0H   SFRSYM    DATA     BIT       CS0CN0_CSCMPF
      000000C0H.3 SFRSYM    DATA     BIT       SMB0CN0_ACKRQ
      000000FFH   SFRSYM    DATA     BYTE      VDM0CN
      000000F1H   SFRSYM    DATA     BYTE      P0MDIN
      00000098H.4 SFRSYM    DATA     BIT       SCON0_REN
      000000F2H   SFRSYM    DATA     BYTE      P1MDIN
      000000FEH   SFRSYM    DATA     BYTE      CS0THH
      000000C0H.4 SFRSYM    DATA     BIT       SMB0CN0_STO
      000000B5H   SFRSYM    DATA     BYTE      PMU0CF
      000000C7H   SFRSYM    DATA     BYTE      P0MASK
      000000BFH   SFRSYM    DATA     BYTE      P1MASK
      000000FDH   SFRSYM    DATA     BYTE      CS0THL
      000000D0H.3 SFRSYM    DATA     BIT       PSW_RS0
      000000D8H.7 SFRSYM    DATA     BIT       PCA0CN0_CF
      000000F8H.4 SFRSYM    DATA     BIT       SPI0CN0_RXOVRN
      000000D0H.4 SFRSYM    DATA     BIT       PSW_RS1
      000000C8H   SFRSYM    DATA     BIT       TMR2CN0_T2XCLK0
      000000C8H.1 SFRSYM    DATA     BIT       TMR2CN0_T2XCLK1
      000000E8H.7 SFRSYM    DATA     BIT       ADC0CN0_ADEN
      00000089H   SFRSYM    DATA     BYTE      TMOD
      00000088H   SFRSYM    DATA     BYTE      TCON
      000000B5H   SFRSYM    DATA     BYTE      PMU0MD
      000000CEH   SFRSYM    DATA     BYTE      PMU0FL
      0000009CH   SFRSYM    DATA     BYTE      CRC0FLIP
      000000D0H   SFRSYM    DATA     BIT       PSW_PARITY
      000000A8H.4 SFRSYM    DATA     BIT       IE_ES0
      0000009FH   SFRSYM    DATA     BYTE      CMP0MX
      000000A8H.1 SFRSYM    DATA     BIT       IE_ET0
LX51 LINKER/LOCATER V4.66.30.0                                                        07/11/2017  21:49:04  PAGE 63


      000000A8H.3 SFRSYM    DATA     BIT       IE_ET1
      000000D4H   SFRSYM    DATA     BYTE      P0SKIP
      000000A8H.5 SFRSYM    DATA     BIT       IE_ET2
      000000D5H   SFRSYM    DATA     BYTE      P1SKIP
      000000E8H   SFRSYM    DATA     BYTE      ADC0CN0
      000000A8H   SFRSYM    DATA     BIT       IE_EX0
      000000D8H.6 SFRSYM    DATA     BIT       PCA0CN0_CR
      000000A8H.2 SFRSYM    DATA     BIT       IE_EX1
      00000098H.7 SFRSYM    DATA     BIT       SCON0_SMODE
      000000A9H   SFRSYM    DATA     BYTE      CLKSEL
      000000F8H   SFRSYM    DATA     BIT       SPI0CN0_SPIEN
      000000F0H   SFRSYM    DATA     BYTE      B
      000000BEH   SFRSYM    DATA     BYTE      ADC0H
      0000009EH   SFRSYM    DATA     BYTE      CRC0AUTO
      000000B0H.4 SFRSYM    DATA     BIT       CS0CN0_CSBUSY
      000000E8H.6 SFRSYM    DATA     BIT       ADC0CN0_ADBMEN
      000000CAH   SFRSYM    DATA     WORD      TMR2RL
      000000BDH   SFRSYM    DATA     BYTE      ADC0L
      00000092H   SFRSYM    DATA     WORD      TMR3RL
      000000D8H   SFRSYM    DATA     BYTE      PCA0CN0
      000000E0H   SFRSYM    DATA     BYTE      ACC
      000000FBH   SFRSYM    DATA     WORD      PCA0CP0
      000000E9H   SFRSYM    DATA     WORD      PCA0CP1
      000000EBH   SFRSYM    DATA     WORD      PCA0CP2
      00000084H   SFRSYM    DATA     BYTE      CRC0CN0
      0000008CH   SFRSYM    DATA     BYTE      TH0
      000000B8H.4 SFRSYM    DATA     BIT       IP_PS0
      0000008DH   SFRSYM    DATA     BYTE      TH1
      000000FAH   SFRSYM    DATA     BYTE      PCA0H
      000000B8H.1 SFRSYM    DATA     BIT       IP_PT0
      000000B8H.3 SFRSYM    DATA     BIT       IP_PT1
      000000C0H.2 SFRSYM    DATA     BIT       SMB0CN0_ARBLOST
      000000B8H.5 SFRSYM    DATA     BIT       IP_PT2
      0000008AH   SFRSYM    DATA     BYTE      TL0
      000000AAH   SFRSYM    DATA     BYTE      CS0CF
      000000F8H.1 SFRSYM    DATA     BIT       SPI0CN0_TXBMT
      000000D0H.5 SFRSYM    DATA     BIT       PSW_F0
      000000A8H.6 SFRSYM    DATA     BIT       IE_ESPI0
      0000008BH   SFRSYM    DATA     BYTE      TL1
      000000F9H   SFRSYM    DATA     BYTE      PCA0L
      000000C0H   SFRSYM    DATA     BIT       SMB0CN0_SI
      000000D0H.1 SFRSYM    DATA     BIT       PSW_F1
      00000080H   SFRSYM    DATA     BIT       P0_B0
      000000B8H   SFRSYM    DATA     BIT       IP_PX0
      00000090H   SFRSYM    DATA     BIT       P1_B0
      00000080H.1 SFRSYM    DATA     BIT       P0_B1
      000000B8H.2 SFRSYM    DATA     BIT       IP_PX1
      000000EEH   SFRSYM    DATA     BYTE      CS0DH
      0000009BH   SFRSYM    DATA     BYTE      CMP0CN0
      00000088H.1 SFRSYM    DATA     BIT       TCON_IE0
      00000090H.1 SFRSYM    DATA     BIT       P1_B1
      00000080H.2 SFRSYM    DATA     BIT       P0_B2
      00000088H.3 SFRSYM    DATA     BIT       TCON_IE1
      00000090H.2 SFRSYM    DATA     BIT       P1_B2
      00000080H.3 SFRSYM    DATA     BIT       P0_B3
      000000C0H   SFRSYM    DATA     BYTE      SMB0CN0
      00000090H.3 SFRSYM    DATA     BIT       P1_B3
      00000080H.4 SFRSYM    DATA     BIT       P0_B4
      00000090H.4 SFRSYM    DATA     BIT       P1_B4
      00000080H.5 SFRSYM    DATA     BIT       P0_B5
      000000EDH   SFRSYM    DATA     BYTE      CS0DL
      00000090H.5 SFRSYM    DATA     BIT       P1_B5
LX51 LINKER/LOCATER V4.66.30.0                                                        07/11/2017  21:49:04  PAGE 64


      00000080H.6 SFRSYM    DATA     BIT       P0_B6
      00000090H.6 SFRSYM    DATA     BIT       P1_B6
      00000080H.7 SFRSYM    DATA     BIT       P0_B7
      00000090H.7 SFRSYM    DATA     BIT       P1_B7
      000000A0H.7 SFRSYM    DATA     BIT       P2_B7
      00000083H   SFRSYM    DATA     BYTE      DPH
      000000C4H   SFRSYM    DATA     BYTE      ADC0GTH
      000000C8H.7 SFRSYM    DATA     BIT       TMR2CN0_TF2H
      000000C8H.3 SFRSYM    DATA     BIT       TMR2CN0_T2SPLIT
      000000D0H.6 SFRSYM    DATA     BIT       PSW_AC
      000000F8H   SFRSYM    DATA     BYTE      SPI0CN0
      000000B3H   SFRSYM    DATA     BYTE      HFO0CAL
      000000DEH   SFRSYM    DATA     BYTE      CS0SE
      00000088H.5 SFRSYM    DATA     BIT       TCON_TF0
      00000098H   SFRSYM    DATA     BIT       SCON0_RI
      00000082H   SFRSYM    DATA     BYTE      DPL
      00000088H.7 SFRSYM    DATA     BIT       TCON_TF1
      00000099H   SFRSYM    DATA     BYTE      SBUF0
      00000087H   SFRSYM    DATA     BYTE      PCON0
      000000B9H   SFRSYM    DATA     BYTE      IREF0CF
      000000C3H   SFRSYM    DATA     BYTE      ADC0GTL
      000000C8H.6 SFRSYM    DATA     BIT       TMR2CN0_TF2L
      00000098H.1 SFRSYM    DATA     BIT       SCON0_TI
      000000E8H   SFRSYM    DATA     BIT       ADC0CN0_ADCM0
      000000C6H   SFRSYM    DATA     BYTE      ADC0LTH
      00000088H   SFRSYM    DATA     BIT       TCON_IT0
      000000B0H.1 SFRSYM    DATA     BIT       CS0CN0_CSPME
      000000E8H.1 SFRSYM    DATA     BIT       ADC0CN0_ADCM1
      000000EFH   SFRSYM    DATA     BYTE      RSTSRC
      000000D7H   SFRSYM    DATA     BYTE      P0MAT
      00000086H   SFRSYM    DATA     BYTE      CRC0DAT
      00000088H.2 SFRSYM    DATA     BIT       TCON_IT1
      000000E8H.2 SFRSYM    DATA     BIT       ADC0CN0_ADCM2
      00000098H   SFRSYM    DATA     BYTE      SCON0
      000000CFH   SFRSYM    DATA     BYTE      P1MAT
      000000DEH   SFRSYM    DATA     BYTE      CS0PM
      000000E8H.3 SFRSYM    DATA     BIT       ADC0CN0_ADWINT
      000000E8H.4 SFRSYM    DATA     BIT       ADC0CN0_ADBUSY
      000000F5H   SFRSYM    DATA     BYTE      SMB0ADM
      000000C5H   SFRSYM    DATA     BYTE      ADC0LTL
      000000F8H.5 SFRSYM    DATA     BIT       SPI0CN0_MODF
      000000B8H.6 SFRSYM    DATA     BIT       IP_PSPI0
      000000B0H.6 SFRSYM    DATA     BIT       CS0CN0_CSEOS
      000000C8H   SFRSYM    DATA     BYTE      TMR2CN0
      00000091H   SFRSYM    DATA     BYTE      TMR3CN0
      000000F4H   SFRSYM    DATA     BYTE      SMB0ADR
      00000088H.4 SFRSYM    DATA     BIT       TCON_TR0
      000000B0H.5 SFRSYM    DATA     BIT       CS0CN0_CSINT
      000000ABH   SFRSYM    DATA     BYTE      CS0MX
      000000C8H.4 SFRSYM    DATA     BIT       TMR2CN0_TF2CEN
      00000088H.6 SFRSYM    DATA     BIT       TCON_TR1
      000000C2H   SFRSYM    DATA     BYTE      SMB0DAT
      00000099H   SFRSYM    DATA     BYTE      P0DRV
      000000DDH   SFRSYM    DATA     BYTE      CS0SS
      000000CDH   SFRSYM    DATA     BYTE      TMR2H
      000000A1H   SFRSYM    DATA     BYTE      SPI0CFG
      0000009BH   SFRSYM    DATA     BYTE      P1DRV
      00000095H   SFRSYM    DATA     BYTE      TMR3H
      0000009DH   SFRSYM    DATA     BYTE      P2DRV
      0000009AH   SFRSYM    DATA     BYTE      CRC0CNT
      000000CCH   SFRSYM    DATA     BYTE      TMR2L
      000000ACH   SFRSYM    DATA     BYTE      RTC0ADR
LX51 LINKER/LOCATER V4.66.30.0                                                        07/11/2017  21:49:04  PAGE 65


      000000F8H.7 SFRSYM    DATA     BIT       SPI0CN0_SPIF
      00000094H   SFRSYM    DATA     BYTE      TMR3L
      000000BBH   SFRSYM    DATA     BYTE      ADC0PWR
      000000A8H.7 SFRSYM    DATA     BIT       IE_EA
      000000ADH   SFRSYM    DATA     BYTE      RTC0DAT
      000000B0H.3 SFRSYM    DATA     BIT       CS0CN0_CSCMPEN
      000000B6H   SFRSYM    DATA     BYTE      FLSCL
      000000C8H.5 SFRSYM    DATA     BIT       TMR2CN0_TF2LEN
      000000F8H.6 SFRSYM    DATA     BIT       SPI0CN0_WCOL
      000000F8H.2 SFRSYM    DATA     BIT       SPI0CN0_NSSMD0
      000000D0H.7 SFRSYM    DATA     BIT       PSW_CY
      000000A3H   SFRSYM    DATA     BYTE      SPI0DAT
      000000F8H.3 SFRSYM    DATA     BIT       SPI0CN0_NSSMD1
      000000BDH   SFRSYM    DATA     WORD      ADC0
      0000008EH   SFRSYM    DATA     BYTE      TOFFH
      000000D0H   SFRSYM    DATA     BYTE      PSW
      000000DFH   SFRSYM    DATA     BYTE      PCA0PWM
      000000E2H   SFRSYM    DATA     BYTE      REVID
      0000008DH   SFRSYM    DATA     BYTE      TOFFL
      000000B7H   SFRSYM    DATA     BYTE      FLKEY
      000000BAH   SFRSYM    DATA     BYTE      ADC0AC
      00000048H   SYMBOL    DATA     WORD      Ticks
      00000006H   SYMBOL    DATA     WORD      ticks
      00000004H   SYMBOL    DATA     WORD      ms
      00000002H   SYMBOL    DATA     WORD      ticks

      010018BDH   BLOCK     CODE     ---       LVL=0
      010018BDH   BLOCK     CODE     NEAR LAB  LVL=1
      00000007H   SYMBOL    DATA     BYTE      TMR3CN0_TR3_save
      ---         BLOCKEND  ---      ---       LVL=1
      010018BDH   LINE      CODE     ---       #49
      010018BDH   LINE      CODE     ---       #51
      010018C1H   LINE      CODE     ---       #52
      010018C4H   LINE      CODE     ---       #53
      010018C7H   LINE      CODE     ---       #54
      010018CAH   LINE      CODE     ---       #55
      010018CDH   LINE      CODE     ---       #56
      010018D0H   LINE      CODE     ---       #57
      010018D3H   LINE      CODE     ---       #58
      010018D5H   LINE      CODE     ---       #60
      010018D8H   LINE      CODE     ---       #61
      ---         BLOCKEND  ---      ---       LVL=0

      01001A2EH   BLOCK     CODE     ---       LVL=0
      01001A2EH   LINE      CODE     ---       #66
      01001A30H   LINE      CODE     ---       #68
      01001A33H   LINE      CODE     ---       #70
      01001A3BH   LINE      CODE     ---       #71
      ---         BLOCKEND  ---      ---       LVL=0

      ---         MODULE    ---      ---       TOUCHY
      01001B0FH   PUBLIC    CODE     ---       TouchySleepNow
      01001B9FH   PUBLIC    CODE     ---       TouchyReadSlider
      01001B93H   PUBLIC    CODE     ---       TouchyGetPressedButtons
      01000F93H   PUBLIC    CODE     ---       TouchyButtonRefresh
      010013EDH   PUBLIC    CODE     ---       TouchyLEDRefresh
      010019F9H   PUBLIC    CODE     ---       TouchySleepLEDs
      01001A1DH   PUBLIC    CODE     ---       _TouchyReadLEDIntensity
      0100156AH   PUBLIC    CODE     ---       _TouchySetLEDIntensity
      0100172DH   PUBLIC    CODE     ---       _TouchyLEDToggle
      01001983H   PUBLIC    CODE     ---       _TouchyLEDOn
      01001999H   PUBLIC    CODE     ---       _TouchyLEDOff
LX51 LINKER/LOCATER V4.66.30.0                                                        07/11/2017  21:49:04  PAGE 66


      010018D9H   PUBLIC    CODE     ---       _TouchySetLEDs
      01001BB5H   PUBLIC    CODE     ---       TouchyReadLEDs
      000000A2H   SFRSYM    DATA     BYTE      SPI0CKR
      00000080H   SFRSYM    DATA     BYTE      P0
      000000D0H.2 SFRSYM    DATA     BIT       PSW_OV
      000000B1H   SFRSYM    DATA     BYTE      XOSC0CN
      00000090H   SFRSYM    DATA     BYTE      P1
      000000A0H   SFRSYM    DATA     BYTE      P2
      00000097H   SFRSYM    DATA     BYTE      ADC0CF
      000000C0H.7 SFRSYM    DATA     BIT       SMB0CN0_MASTER
      000000F9H   SFRSYM    DATA     WORD      PCA0
      000000AEH   SFRSYM    DATA     BYTE      RTC0KEY
      000000E6H   SFRSYM    DATA     BYTE      EIE1
      000000C0H.1 SFRSYM    DATA     BIT       SMB0CN0_ACK
      000000E7H   SFRSYM    DATA     BYTE      EIE2
      0000008FH   SFRSYM    DATA     BYTE      PSCTL
      000000E4H   SFRSYM    DATA     BYTE      IT01CF
      000000B0H   SFRSYM    DATA     BYTE      CS0CN0
      000000C0H.6 SFRSYM    DATA     BIT       SMB0CN0_TXMODE
      000000E3H   SFRSYM    DATA     BYTE      DERIVID
      000000AFH   SFRSYM    DATA     BYTE      CS0MD1
      000000A7H   SFRSYM    DATA     BYTE      SFRPAGE
      000000F3H   SFRSYM    DATA     BYTE      CS0MD2
      000000A4H   SFRSYM    DATA     BYTE      P0MDOUT
      000000F3H   SFRSYM    DATA     BYTE      CS0MD3
      000000A5H   SFRSYM    DATA     BYTE      P1MDOUT
      000000E8H.5 SFRSYM    DATA     BIT       ADC0CN0_ADINT
      000000CBH   SFRSYM    DATA     BYTE      TMR2RLH
      000000A6H   SFRSYM    DATA     BYTE      P2MDOUT
      000000A8H   SFRSYM    DATA     BYTE      IE
      00000093H   SFRSYM    DATA     BYTE      TMR3RLH
      000000F6H   SFRSYM    DATA     BYTE      EIP1
      000000F7H   SFRSYM    DATA     BYTE      EIP2
      00000098H.2 SFRSYM    DATA     BIT       SCON0_RB8
      000000CAH   SFRSYM    DATA     BYTE      TMR2RLL
      000000FCH   SFRSYM    DATA     BYTE      PCA0CPH0
      00000092H   SFRSYM    DATA     BYTE      TMR3RLL
      000000EAH   SFRSYM    DATA     BYTE      PCA0CPH1
      00000098H.3 SFRSYM    DATA     BIT       SCON0_TB8
      000000B0H.7 SFRSYM    DATA     BIT       CS0CN0_CSEN
      000000F0H   SFRSYM    DATA     BIT       B_B0
      00000082H   SFRSYM    DATA     WORD      DP
      000000ECH   SFRSYM    DATA     BYTE      PCA0CPH2
      000000F0H.1 SFRSYM    DATA     BIT       B_B1
      000000C3H   SFRSYM    DATA     WORD      ADC0GT
      000000F0H.2 SFRSYM    DATA     BIT       B_B2
      000000FBH   SFRSYM    DATA     BYTE      PCA0CPL0
      000000F0H.3 SFRSYM    DATA     BIT       B_B3
      000000D9H   SFRSYM    DATA     BYTE      PCA0MD
      000000DAH   SFRSYM    DATA     BYTE      PCA0CPM0
      000000E9H   SFRSYM    DATA     BYTE      PCA0CPL1
      000000F0H.4 SFRSYM    DATA     BIT       B_B4
      000000DBH   SFRSYM    DATA     BYTE      PCA0CPM1
      000000EBH   SFRSYM    DATA     BYTE      PCA0CPL2
      000000F0H.5 SFRSYM    DATA     BIT       B_B5
      000000DCH   SFRSYM    DATA     BYTE      PCA0CPM2
      000000B8H   SFRSYM    DATA     BYTE      IP
      000000BCH   SFRSYM    DATA     BYTE      ADC0TK
      000000F0H.6 SFRSYM    DATA     BIT       B_B6
      000000C5H   SFRSYM    DATA     WORD      ADC0LT
      000000D6H   SFRSYM    DATA     BYTE      IREF0CN0
      00000098H.5 SFRSYM    DATA     BIT       SCON0_MCE
LX51 LINKER/LOCATER V4.66.30.0                                                        07/11/2017  21:49:04  PAGE 67


      000000F0H.7 SFRSYM    DATA     BIT       B_B7
      000000E1H   SFRSYM    DATA     BYTE      XBR0
      000000C1H   SFRSYM    DATA     BYTE      SMB0CF
      000000E2H   SFRSYM    DATA     BYTE      XBR1
      000000D2H   SFRSYM    DATA     BYTE      CS0SCAN0
      000000C0H.5 SFRSYM    DATA     BIT       SMB0CN0_STA
      000000E3H   SFRSYM    DATA     BYTE      XBR2
      000000D3H   SFRSYM    DATA     BYTE      CS0SCAN1
      00000096H   SFRSYM    DATA     BYTE      ADC0MX
      000000E0H   SFRSYM    DATA     BIT       ACC_ACC0
      000000D1H   SFRSYM    DATA     BYTE      REF0CN
      000000B2H   SFRSYM    DATA     BYTE      HFO0CN
      0000008EH   SFRSYM    DATA     BYTE      CKCON0
      000000E0H.1 SFRSYM    DATA     BIT       ACC_ACC1
      000000C9H   SFRSYM    DATA     BYTE      REG0CN
      00000085H   SFRSYM    DATA     BYTE      CRC0IN
      000000C8H.2 SFRSYM    DATA     BIT       TMR2CN0_TR2
      000000E0H.2 SFRSYM    DATA     BIT       ACC_ACC2
      000000E0H.3 SFRSYM    DATA     BIT       ACC_ACC3
      00000081H   SFRSYM    DATA     BYTE      SP
      0000009DH   SFRSYM    DATA     BYTE      CMP0MD
      000000E0H.4 SFRSYM    DATA     BIT       ACC_ACC4
      000000D8H   SFRSYM    DATA     BIT       PCA0CN0_CCF0
      000000E0H.5 SFRSYM    DATA     BIT       ACC_ACC5
      000000D8H.1 SFRSYM    DATA     BIT       PCA0CN0_CCF1
      000000E0H.6 SFRSYM    DATA     BIT       ACC_ACC6
      000000CCH   SFRSYM    DATA     WORD      TMR2
      000000D8H.2 SFRSYM    DATA     BIT       PCA0CN0_CCF2
      000000E0H.7 SFRSYM    DATA     BIT       ACC_ACC7
      00000094H   SFRSYM    DATA     WORD      TMR3
      000000B0H   SFRSYM    DATA     BIT       CS0CN0_CSCMPF
      000000C0H.3 SFRSYM    DATA     BIT       SMB0CN0_ACKRQ
      000000FFH   SFRSYM    DATA     BYTE      VDM0CN
      000000F1H   SFRSYM    DATA     BYTE      P0MDIN
      00000098H.4 SFRSYM    DATA     BIT       SCON0_REN
      000000F2H   SFRSYM    DATA     BYTE      P1MDIN
      000000FEH   SFRSYM    DATA     BYTE      CS0THH
      000000C0H.4 SFRSYM    DATA     BIT       SMB0CN0_STO
      000000B5H   SFRSYM    DATA     BYTE      PMU0CF
      000000C7H   SFRSYM    DATA     BYTE      P0MASK
      000000BFH   SFRSYM    DATA     BYTE      P1MASK
      000000FDH   SFRSYM    DATA     BYTE      CS0THL
      000000D0H.3 SFRSYM    DATA     BIT       PSW_RS0
      000000D8H.7 SFRSYM    DATA     BIT       PCA0CN0_CF
      000000F8H.4 SFRSYM    DATA     BIT       SPI0CN0_RXOVRN
      000000D0H.4 SFRSYM    DATA     BIT       PSW_RS1
      000000C8H   SFRSYM    DATA     BIT       TMR2CN0_T2XCLK0
      000000C8H.1 SFRSYM    DATA     BIT       TMR2CN0_T2XCLK1
      000000E8H.7 SFRSYM    DATA     BIT       ADC0CN0_ADEN
      00000089H   SFRSYM    DATA     BYTE      TMOD
      00000088H   SFRSYM    DATA     BYTE      TCON
      000000B5H   SFRSYM    DATA     BYTE      PMU0MD
      000000CEH   SFRSYM    DATA     BYTE      PMU0FL
      0000009CH   SFRSYM    DATA     BYTE      CRC0FLIP
      000000D0H   SFRSYM    DATA     BIT       PSW_PARITY
      000000A8H.4 SFRSYM    DATA     BIT       IE_ES0
      0000009FH   SFRSYM    DATA     BYTE      CMP0MX
      000000A8H.1 SFRSYM    DATA     BIT       IE_ET0
      000000A8H.3 SFRSYM    DATA     BIT       IE_ET1
      000000D4H   SFRSYM    DATA     BYTE      P0SKIP
      000000A8H.5 SFRSYM    DATA     BIT       IE_ET2
      000000D5H   SFRSYM    DATA     BYTE      P1SKIP
LX51 LINKER/LOCATER V4.66.30.0                                                        07/11/2017  21:49:04  PAGE 68


      000000E8H   SFRSYM    DATA     BYTE      ADC0CN0
      000000A8H   SFRSYM    DATA     BIT       IE_EX0
      000000D8H.6 SFRSYM    DATA     BIT       PCA0CN0_CR
      000000A8H.2 SFRSYM    DATA     BIT       IE_EX1
      00000098H.7 SFRSYM    DATA     BIT       SCON0_SMODE
      000000A9H   SFRSYM    DATA     BYTE      CLKSEL
      000000F8H   SFRSYM    DATA     BIT       SPI0CN0_SPIEN
      000000F0H   SFRSYM    DATA     BYTE      B
      000000BEH   SFRSYM    DATA     BYTE      ADC0H
      0000009EH   SFRSYM    DATA     BYTE      CRC0AUTO
      000000B0H.4 SFRSYM    DATA     BIT       CS0CN0_CSBUSY
      000000E8H.6 SFRSYM    DATA     BIT       ADC0CN0_ADBMEN
      000000CAH   SFRSYM    DATA     WORD      TMR2RL
      000000BDH   SFRSYM    DATA     BYTE      ADC0L
      00000092H   SFRSYM    DATA     WORD      TMR3RL
      000000D8H   SFRSYM    DATA     BYTE      PCA0CN0
      000000E0H   SFRSYM    DATA     BYTE      ACC
      000000FBH   SFRSYM    DATA     WORD      PCA0CP0
      000000E9H   SFRSYM    DATA     WORD      PCA0CP1
      000000EBH   SFRSYM    DATA     WORD      PCA0CP2
      00000084H   SFRSYM    DATA     BYTE      CRC0CN0
      0000008CH   SFRSYM    DATA     BYTE      TH0
      000000B8H.4 SFRSYM    DATA     BIT       IP_PS0
      0000008DH   SFRSYM    DATA     BYTE      TH1
      000000FAH   SFRSYM    DATA     BYTE      PCA0H
      000000B8H.1 SFRSYM    DATA     BIT       IP_PT0
      000000B8H.3 SFRSYM    DATA     BIT       IP_PT1
      00000080H   SFRSYM    DATA     BIT       LED1pin
      000000C0H.2 SFRSYM    DATA     BIT       SMB0CN0_ARBLOST
      000000B8H.5 SFRSYM    DATA     BIT       IP_PT2
      0000008AH   SFRSYM    DATA     BYTE      TL0
      000000AAH   SFRSYM    DATA     BYTE      CS0CF
      000000A0H.7 SFRSYM    DATA     BIT       LED2pin
      000000F8H.1 SFRSYM    DATA     BIT       SPI0CN0_TXBMT
      000000D0H.5 SFRSYM    DATA     BIT       PSW_F0
      000000A8H.6 SFRSYM    DATA     BIT       IE_ESPI0
      0000008BH   SFRSYM    DATA     BYTE      TL1
      000000F9H   SFRSYM    DATA     BYTE      PCA0L
      00000090H.6 SFRSYM    DATA     BIT       LED3pin
      000000C0H   SFRSYM    DATA     BIT       SMB0CN0_SI
      000000D0H.1 SFRSYM    DATA     BIT       PSW_F1
      00000080H   SFRSYM    DATA     BIT       P0_B0
      000000B8H   SFRSYM    DATA     BIT       IP_PX0
      00000090H.7 SFRSYM    DATA     BIT       LED4pin
      00000090H   SFRSYM    DATA     BIT       P1_B0
      00000080H.1 SFRSYM    DATA     BIT       P0_B1
      000000B8H.2 SFRSYM    DATA     BIT       IP_PX1
      000000EEH   SFRSYM    DATA     BYTE      CS0DH
      0000009BH   SFRSYM    DATA     BYTE      CMP0CN0
      00000090H   SFRSYM    DATA     BIT       LED5pin
      00000088H.1 SFRSYM    DATA     BIT       TCON_IE0
      00000090H.1 SFRSYM    DATA     BIT       P1_B1
      00000080H.2 SFRSYM    DATA     BIT       P0_B2
      00000080H.7 SFRSYM    DATA     BIT       LED6pin
      00000088H.3 SFRSYM    DATA     BIT       TCON_IE1
      00000090H.2 SFRSYM    DATA     BIT       P1_B2
      00000080H.3 SFRSYM    DATA     BIT       P0_B3
      000000C0H   SFRSYM    DATA     BYTE      SMB0CN0
      00000090H.3 SFRSYM    DATA     BIT       P1_B3
      00000080H.4 SFRSYM    DATA     BIT       P0_B4
      00000090H.4 SFRSYM    DATA     BIT       P1_B4
      00000080H.5 SFRSYM    DATA     BIT       P0_B5
LX51 LINKER/LOCATER V4.66.30.0                                                        07/11/2017  21:49:04  PAGE 69


      000000EDH   SFRSYM    DATA     BYTE      CS0DL
      00000090H.5 SFRSYM    DATA     BIT       P1_B5
      00000080H.6 SFRSYM    DATA     BIT       P0_B6
      00000090H.6 SFRSYM    DATA     BIT       P1_B6
      00000080H.7 SFRSYM    DATA     BIT       P0_B7
      00000090H.7 SFRSYM    DATA     BIT       P1_B7
      000000A0H.7 SFRSYM    DATA     BIT       P2_B7
      00000083H   SFRSYM    DATA     BYTE      DPH
      000000C4H   SFRSYM    DATA     BYTE      ADC0GTH
      000000C8H.7 SFRSYM    DATA     BIT       TMR2CN0_TF2H
      000000C8H.3 SFRSYM    DATA     BIT       TMR2CN0_T2SPLIT
      000000D0H.6 SFRSYM    DATA     BIT       PSW_AC
      000000F8H   SFRSYM    DATA     BYTE      SPI0CN0
      000000B3H   SFRSYM    DATA     BYTE      HFO0CAL
      000000DEH   SFRSYM    DATA     BYTE      CS0SE
      00000088H.5 SFRSYM    DATA     BIT       TCON_TF0
      00000098H   SFRSYM    DATA     BIT       SCON0_RI
      00000082H   SFRSYM    DATA     BYTE      DPL
      00000088H.7 SFRSYM    DATA     BIT       TCON_TF1
      00000099H   SFRSYM    DATA     BYTE      SBUF0
      00000087H   SFRSYM    DATA     BYTE      PCON0
      000000B9H   SFRSYM    DATA     BYTE      IREF0CF
      000000C3H   SFRSYM    DATA     BYTE      ADC0GTL
      000000C8H.6 SFRSYM    DATA     BIT       TMR2CN0_TF2L
      00000098H.1 SFRSYM    DATA     BIT       SCON0_TI
      000000E8H   SFRSYM    DATA     BIT       ADC0CN0_ADCM0
      000000C6H   SFRSYM    DATA     BYTE      ADC0LTH
      00000088H   SFRSYM    DATA     BIT       TCON_IT0
      000000B0H.1 SFRSYM    DATA     BIT       CS0CN0_CSPME
      000000E8H.1 SFRSYM    DATA     BIT       ADC0CN0_ADCM1
      000000EFH   SFRSYM    DATA     BYTE      RSTSRC
      000000D7H   SFRSYM    DATA     BYTE      P0MAT
      00000086H   SFRSYM    DATA     BYTE      CRC0DAT
      00000088H.2 SFRSYM    DATA     BIT       TCON_IT1
      000000E8H.2 SFRSYM    DATA     BIT       ADC0CN0_ADCM2
      00000098H   SFRSYM    DATA     BYTE      SCON0
      000000CFH   SFRSYM    DATA     BYTE      P1MAT
      000000DEH   SFRSYM    DATA     BYTE      CS0PM
      000000E8H.3 SFRSYM    DATA     BIT       ADC0CN0_ADWINT
      000000E8H.4 SFRSYM    DATA     BIT       ADC0CN0_ADBUSY
      000000F5H   SFRSYM    DATA     BYTE      SMB0ADM
      000000C5H   SFRSYM    DATA     BYTE      ADC0LTL
      000000F8H.5 SFRSYM    DATA     BIT       SPI0CN0_MODF
      000000B8H.6 SFRSYM    DATA     BIT       IP_PSPI0
      000000B0H.6 SFRSYM    DATA     BIT       CS0CN0_CSEOS
      000000C8H   SFRSYM    DATA     BYTE      TMR2CN0
      00000091H   SFRSYM    DATA     BYTE      TMR3CN0
      000000F4H   SFRSYM    DATA     BYTE      SMB0ADR
      00000088H.4 SFRSYM    DATA     BIT       TCON_TR0
      000000B0H.5 SFRSYM    DATA     BIT       CS0CN0_CSINT
      000000ABH   SFRSYM    DATA     BYTE      CS0MX
      000000C8H.4 SFRSYM    DATA     BIT       TMR2CN0_TF2CEN
      00000088H.6 SFRSYM    DATA     BIT       TCON_TR1
      000000C2H   SFRSYM    DATA     BYTE      SMB0DAT
      00000099H   SFRSYM    DATA     BYTE      P0DRV
      000000DDH   SFRSYM    DATA     BYTE      CS0SS
      000000CDH   SFRSYM    DATA     BYTE      TMR2H
      000000A1H   SFRSYM    DATA     BYTE      SPI0CFG
      0000009BH   SFRSYM    DATA     BYTE      P1DRV
      00000095H   SFRSYM    DATA     BYTE      TMR3H
      0000009DH   SFRSYM    DATA     BYTE      P2DRV
      0000009AH   SFRSYM    DATA     BYTE      CRC0CNT
LX51 LINKER/LOCATER V4.66.30.0                                                        07/11/2017  21:49:04  PAGE 70


      000000CCH   SFRSYM    DATA     BYTE      TMR2L
      000000ACH   SFRSYM    DATA     BYTE      RTC0ADR
      000000F8H.7 SFRSYM    DATA     BIT       SPI0CN0_SPIF
      00000094H   SFRSYM    DATA     BYTE      TMR3L
      000000BBH   SFRSYM    DATA     BYTE      ADC0PWR
      000000A8H.7 SFRSYM    DATA     BIT       IE_EA
      000000ADH   SFRSYM    DATA     BYTE      RTC0DAT
      000000B0H.3 SFRSYM    DATA     BIT       CS0CN0_CSCMPEN
      000000B6H   SFRSYM    DATA     BYTE      FLSCL
      000000C8H.5 SFRSYM    DATA     BIT       TMR2CN0_TF2LEN
      000000F8H.6 SFRSYM    DATA     BIT       SPI0CN0_WCOL
      000000F8H.2 SFRSYM    DATA     BIT       SPI0CN0_NSSMD0
      000000D0H.7 SFRSYM    DATA     BIT       PSW_CY
      000000A3H   SFRSYM    DATA     BYTE      SPI0DAT
      000000F8H.3 SFRSYM    DATA     BIT       SPI0CN0_NSSMD1
      000000BDH   SFRSYM    DATA     WORD      ADC0
      0000008EH   SFRSYM    DATA     BYTE      TOFFH
      000000D0H   SFRSYM    DATA     BYTE      PSW
      000000DFH   SFRSYM    DATA     BYTE      PCA0PWM
      000000E2H   SFRSYM    DATA     BYTE      REVID
      0000008DH   SFRSYM    DATA     BYTE      TOFFL
      000000B7H   SFRSYM    DATA     BYTE      FLKEY
      000000BAH   SFRSYM    DATA     BYTE      ADC0AC
      0000002EH   SYMBOL    DATA     BYTE      sleepCounter
      0000002FH   SYMBOL    DATA     BYTE      previousButtonState
      00000030H   SYMBOL    DATA     WORD      angle
      00000032H   SYMBOL    DATA     BYTE      intensity1
      00000033H   SYMBOL    DATA     BYTE      intensity2
      00000034H   SYMBOL    DATA     BYTE      buttonState
      00000035H   SYMBOL    DATA     BYTE      ledState
      00000036H   SYMBOL    DATA     BYTE      buttonsChanged
      00000037H   SYMBOL    DATA     WORD      previousAngle

      01001BB5H   BLOCK     CODE     ---       LVL=0
      01001BB5H   LINE      CODE     ---       #33
      01001BB5H   LINE      CODE     ---       #34
      01001BB5H   LINE      CODE     ---       #35
      01001BB7H   LINE      CODE     ---       #36
      ---         BLOCKEND  ---      ---       LVL=0

      010018D9H   BLOCK     CODE     ---       LVL=0
      00000007H   SYMBOL    DATA     BYTE      leds
      010018D9H   LINE      CODE     ---       #39
      010018D9H   LINE      CODE     ---       #40
      010018D9H   LINE      CODE     ---       #42
      010018DCH   LINE      CODE     ---       #45
      010018DEH   LINE      CODE     ---       #48
      010018E1H   LINE      CODE     ---       #50
      010018E5H   LINE      CODE     ---       #51
      010018E8H   LINE      CODE     ---       #52
      010018E8H   LINE      CODE     ---       #55
      010018EBH   LINE      CODE     ---       #57
      010018EFH   LINE      CODE     ---       #58
      010018F2H   LINE      CODE     ---       #59
      010018F2H   LINE      CODE     ---       #62
      ---         BLOCKEND  ---      ---       LVL=0

      01001999H   BLOCK     CODE     ---       LVL=0
      00000007H   SYMBOL    DATA     BYTE      leds
      01001999H   LINE      CODE     ---       #66
      01001999H   LINE      CODE     ---       #67
      01001999H   LINE      CODE     ---       #69
LX51 LINKER/LOCATER V4.66.30.0                                                        07/11/2017  21:49:04  PAGE 71


      0100199DH   LINE      CODE     ---       #72
      010019A1H   LINE      CODE     ---       #73
      010019A4H   LINE      CODE     ---       #74
      010019A4H   LINE      CODE     ---       #77
      010019A8H   LINE      CODE     ---       #78
      010019ABH   LINE      CODE     ---       #79
      010019ABH   LINE      CODE     ---       #81
      ---         BLOCKEND  ---      ---       LVL=0

      01001983H   BLOCK     CODE     ---       LVL=0
      00000007H   SYMBOL    DATA     BYTE      leds
      01001983H   LINE      CODE     ---       #85
      01001983H   LINE      CODE     ---       #86
      01001983H   LINE      CODE     ---       #88
      01001986H   LINE      CODE     ---       #91
      01001989H   LINE      CODE     ---       #94
      0100198CH   LINE      CODE     ---       #95
      0100198FH   LINE      CODE     ---       #96
      0100198FH   LINE      CODE     ---       #99
      01001993H   LINE      CODE     ---       #100
      01001996H   LINE      CODE     ---       #101
      01001996H   LINE      CODE     ---       #103
      ---         BLOCKEND  ---      ---       LVL=0

      0100172DH   BLOCK     CODE     ---       LVL=0
      00000007H   SYMBOL    DATA     BYTE      leds
      0100172DH   LINE      CODE     ---       #107
      0100172DH   LINE      CODE     ---       #108
      0100172DH   LINE      CODE     ---       #110
      01001730H   LINE      CODE     ---       #113
      0100173CH   LINE      CODE     ---       #116
      01001740H   LINE      CODE     ---       #117
      01001747H   LINE      CODE     ---       #118
      01001747H   LINE      CODE     ---       #121
      0100174BH   LINE      CODE     ---       #122
      01001752H   LINE      CODE     ---       #123
      01001752H   LINE      CODE     ---       #125
      ---         BLOCKEND  ---      ---       LVL=0

      0100156AH   BLOCK     CODE     ---       LVL=0
      00000007H   SYMBOL    DATA     BYTE      leds
      00000005H   SYMBOL    DATA     BYTE      intensity
      0100156AH   LINE      CODE     ---       #129
      0100156AH   LINE      CODE     ---       #130
      0100156AH   LINE      CODE     ---       #132
      0100156EH   LINE      CODE     ---       #133
      0100156EH   LINE      CODE     ---       #134
      01001570H   LINE      CODE     ---       #136
      01001573H   LINE      CODE     ---       #137
      01001576H   LINE      CODE     ---       #138
      01001578H   LINE      CODE     ---       #139
      01001578H   LINE      CODE     ---       #140
      0100157BH   LINE      CODE     ---       #141
      0100157BH   LINE      CODE     ---       #143
      0100157EH   LINE      CODE     ---       #144
      0100157EH   LINE      CODE     ---       #145
      01001581H   LINE      CODE     ---       #146
      01001581H   LINE      CODE     ---       #147
      01001581H   LINE      CODE     ---       #150
      01001585H   LINE      CODE     ---       #151
      01001585H   LINE      CODE     ---       #152
      01001587H   LINE      CODE     ---       #154
LX51 LINKER/LOCATER V4.66.30.0                                                        07/11/2017  21:49:04  PAGE 72


      0100158AH   LINE      CODE     ---       #155
      0100158DH   LINE      CODE     ---       #156
      0100158FH   LINE      CODE     ---       #157
      0100158FH   LINE      CODE     ---       #158
      01001592H   LINE      CODE     ---       #159
      01001592H   LINE      CODE     ---       #161
      01001595H   LINE      CODE     ---       #162
      01001595H   LINE      CODE     ---       #163
      01001598H   LINE      CODE     ---       #164
      01001598H   LINE      CODE     ---       #165
      01001598H   LINE      CODE     ---       #167
      ---         BLOCKEND  ---      ---       LVL=0

      01001A1DH   BLOCK     CODE     ---       LVL=0
      00000007H   SYMBOL    DATA     BYTE      leds
      01001A1DH   BLOCK     CODE     NEAR LAB  LVL=1
      00000006H   SYMBOL    DATA     BYTE      intensity
      ---         BLOCKEND  ---      ---       LVL=1
      01001A1DH   LINE      CODE     ---       #171
      01001A1DH   LINE      CODE     ---       #172
      01001A1DH   LINE      CODE     ---       #173
      01001A1FH   LINE      CODE     ---       #176
      01001A23H   LINE      CODE     ---       #177
      01001A23H   LINE      CODE     ---       #178
      01001A25H   LINE      CODE     ---       #179
      01001A25H   LINE      CODE     ---       #182
      01001A29H   LINE      CODE     ---       #183
      01001A29H   LINE      CODE     ---       #184
      01001A2BH   LINE      CODE     ---       #185
      01001A2BH   LINE      CODE     ---       #187
      01001A2DH   LINE      CODE     ---       #188
      ---         BLOCKEND  ---      ---       LVL=0

      010019F9H   BLOCK     CODE     ---       LVL=0
      010019F9H   LINE      CODE     ---       #191
      010019F9H   LINE      CODE     ---       #192
      010019F9H   LINE      CODE     ---       #193
      01001A05H   LINE      CODE     ---       #196
      01001A08H   LINE      CODE     ---       #199
      01001A0AH   LINE      CODE     ---       #203
      ---         BLOCKEND  ---      ---       LVL=0

      010013EDH   BLOCK     CODE     ---       LVL=0
      010013EDH   LINE      CODE     ---       #206
      010013EDH   LINE      CODE     ---       #207
      010013EDH   LINE      CODE     ---       #208
      010013F3H   LINE      CODE     ---       #209
      010013FBH   LINE      CODE     ---       #210
      01001405H   LINE      CODE     ---       #211
      01001410H   LINE      CODE     ---       #212
      01001419H   LINE      CODE     ---       #213
      01001423H   LINE      CODE     ---       #216
      01001426H   LINE      CODE     ---       #219
      01001429H   LINE      CODE     ---       #221
      ---         BLOCKEND  ---      ---       LVL=0

      01000F93H   BLOCK     CODE     ---       LVL=0
      01000F93H   LINE      CODE     ---       #224
      01000F93H   LINE      CODE     ---       #225
      01000F93H   LINE      CODE     ---       #226
      01000F96H   LINE      CODE     ---       #228
      01000F9EH   LINE      CODE     ---       #229
LX51 LINKER/LOCATER V4.66.30.0                                                        07/11/2017  21:49:04  PAGE 73


      01000FA1H   LINE      CODE     ---       #230
      01000FA1H   LINE      CODE     ---       #232
      01000FABH   LINE      CODE     ---       #233
      01000FAEH   LINE      CODE     ---       #234
      01000FAEH   LINE      CODE     ---       #236
      01000FB8H   LINE      CODE     ---       #237
      01000FBBH   LINE      CODE     ---       #238
      01000FBBH   LINE      CODE     ---       #240
      01000FC5H   LINE      CODE     ---       #241
      01000FC8H   LINE      CODE     ---       #242
      01000FC8H   LINE      CODE     ---       #244
      01000FD2H   LINE      CODE     ---       #245
      01000FD5H   LINE      CODE     ---       #246
      01000FD5H   LINE      CODE     ---       #248
      01000FDFH   LINE      CODE     ---       #249
      01000FE2H   LINE      CODE     ---       #250
      01000FE2H   LINE      CODE     ---       #252
      01000FE8H   LINE      CODE     ---       #253
      01000FEBH   LINE      CODE     ---       #255
      01000FEFH   LINE      CODE     ---       #256
      01000FF2H   LINE      CODE     ---       #257
      01000FF2H   LINE      CODE     ---       #260
      01000FF7H   LINE      CODE     ---       #261
      01000FF7H   LINE      CODE     ---       #262
      01000FFDH   LINE      CODE     ---       #266
      01001004H   LINE      CODE     ---       #268
      01001007H   LINE      CODE     ---       #269
      01001007H   LINE      CODE     ---       #271
      01001009H   LINE      CODE     ---       #272
      ---         BLOCKEND  ---      ---       LVL=0

      01001B93H   BLOCK     CODE     ---       LVL=0
      01001B93H   LINE      CODE     ---       #287
      01001B93H   LINE      CODE     ---       #288
      01001B93H   LINE      CODE     ---       #289
      01001B98H   LINE      CODE     ---       #290
      ---         BLOCKEND  ---      ---       LVL=0

      01001B9FH   BLOCK     CODE     ---       LVL=0
      01001B9FH   LINE      CODE     ---       #299
      01001B9FH   LINE      CODE     ---       #300
      01001B9FH   LINE      CODE     ---       #301
      01001BA3H   LINE      CODE     ---       #302
      ---         BLOCKEND  ---      ---       LVL=0

      01001B0FH   BLOCK     CODE     ---       LVL=0
      01001B0FH   LINE      CODE     ---       #320
      01001B0FH   LINE      CODE     ---       #321
      01001B0FH   LINE      CODE     ---       #322
      01001B16H   LINE      CODE     ---       #323
      01001B18H   LINE      CODE     ---       #324
      01001B18H   LINE      CODE     ---       #326
      01001B19H   LINE      CODE     ---       #327
      ---         BLOCKEND  ---      ---       LVL=0

      ---         MODULE    ---      ---       LOW_POWER_ROUTINES
      000000D9H   PUBLIC    IDATA    WORD      SLEEP_BASELINE
      000000D8H   PUBLIC    IDATA    BYTE      MODE
      000000D4H   PUBLIC    IDATA    ---       SLEEP_SCAN_VALUE
      01000CB7H   PUBLIC    CODE     ---       SLEEPMODESCANTICK
      0100100AH   PUBLIC    CODE     ---       INITSLEEPMODEBASELINE
      01000C10H   PUBLIC    CODE     ---       CSLIB_LOWPOWERUPDATE
LX51 LINKER/LOCATER V4.66.30.0                                                        07/11/2017  21:49:04  PAGE 74


      01001AADH   PUBLIC    CODE     ---       INIT_LOWPOWERROUTINES
      00000000H   SYMBOL    CODE     WORD      _ICE_DUMMY_
      01001AADH   BLOCK     ---      ---       LVL=1
      01001AADH   LINE      CODE     ---       #30
      01001AADH   LINE      CODE     ---       #31
      01001AADH   LINE      CODE     ---       #32
      01001AB4H   LINE      CODE     ---       #33
      01001AB4H   LINE      CODE     ---       #34
      01001AB6H   LINE      CODE     ---       #35
      01001AB7H   LINE      CODE     ---       #37
      01001AB7H   LINE      CODE     ---       #38
      01001AB9H   LINE      CODE     ---       #39
      01001AB9H   LINE      CODE     ---       #40
      ---         BLOCKEND  ---      ---       LVL=0
      01000C10H   BLOCK     ---      ---       LVL=1
      01000C10H   BLOCK     ---      ---       LVL=2
      0000004AH   SYMBOL    DATA     WORD      no_touch_counter
      ---         BLOCKEND  ---      ---       LVL=1
      01000C10H   LINE      CODE     ---       #50
      01000C10H   LINE      CODE     ---       #51
      01000C10H   LINE      CODE     ---       #54
      01000C13H   LINE      CODE     ---       #56
      01000C33H   LINE      CODE     ---       #59
      01000C33H   LINE      CODE     ---       #63
      01000C38H   LINE      CODE     ---       #67
      01000C45H   LINE      CODE     ---       #68
      01000C45H   LINE      CODE     ---       #70
      01000C4BH   LINE      CODE     ---       #71
      01000C4BH   LINE      CODE     ---       #74
      01000C63H   LINE      CODE     ---       #76
      01000C63H   LINE      CODE     ---       #77
      01000C67H   LINE      CODE     ---       #78
      01000C6CH   LINE      CODE     ---       #83
      01000C6FH   LINE      CODE     ---       #84
      01000C72H   LINE      CODE     ---       #85
      01000C75H   LINE      CODE     ---       #86
      01000C75H   LINE      CODE     ---       #87
      01000C77H   LINE      CODE     ---       #90
      01000C77H   LINE      CODE     ---       #92
      01000C7CH   LINE      CODE     ---       #93
      01000C7CH   LINE      CODE     ---       #96
      01000C82H   LINE      CODE     ---       #97
      01000C82H   LINE      CODE     ---       #99
      01000C85H   LINE      CODE     ---       #104
      01000C85H   LINE      CODE     ---       #105
      01000C85H   LINE      CODE     ---       #106
      01000C85H   LINE      CODE     ---       #109
      01000C8CH   LINE      CODE     ---       #110
      01000C8CH   LINE      CODE     ---       #112
      01000C8FH   LINE      CODE     ---       #118
      01000C95H   LINE      CODE     ---       #119
      01000C95H   LINE      CODE     ---       #122
      01000C98H   LINE      CODE     ---       #123
      01000C9BH   LINE      CODE     ---       #124
      01000CA1H   LINE      CODE     ---       #125
      01000CA1H   LINE      CODE     ---       #128
      01000CA3H   LINE      CODE     ---       #129
      01000CA6H   LINE      CODE     ---       #131
      01000CA6H   LINE      CODE     ---       #134
      01000CA8H   LINE      CODE     ---       #135
      01000CADH   LINE      CODE     ---       #136
      01000CADH   LINE      CODE     ---       #137
LX51 LINKER/LOCATER V4.66.30.0                                                        07/11/2017  21:49:04  PAGE 75


      01000CB0H   LINE      CODE     ---       #139
      01000CB0H   LINE      CODE     ---       #142
      01000CB3H   LINE      CODE     ---       #143
      01000CB3H   LINE      CODE     ---       #145
      01000CB3H   LINE      CODE     ---       #146
      01000CB6H   LINE      CODE     ---       #148
      ---         BLOCKEND  ---      ---       LVL=0
      0100100AH   BLOCK     ---      ---       LVL=1
      0100100AH   BLOCK     ---      ---       LVL=2
      0000001BH   SYMBOL    DATA     BYTE      counter
      0000001CH   SYMBOL    DATA     DWORD     temp_baseline
      ---         BLOCKEND  ---      ---       LVL=1
      0100100AH   LINE      CODE     ---       #160
      0100100AH   LINE      CODE     ---       #161
      0100100AH   LINE      CODE     ---       #163
      01001013H   LINE      CODE     ---       #165
      01001018H   LINE      CODE     ---       #169
      01001021H   LINE      CODE     ---       #170
      01001021H   LINE      CODE     ---       #171
      01001030H   LINE      CODE     ---       #172
      01001034H   LINE      CODE     ---       #175
      0100103EH   LINE      CODE     ---       #176
      01001065H   LINE      CODE     ---       #179
      0100107FH   LINE      CODE     ---       #181
      ---         BLOCKEND  ---      ---       LVL=0
      01000CB7H   BLOCK     ---      ---       LVL=1
      01000CB7H   BLOCK     ---      ---       LVL=2
      0000001BH   SYMBOL    DATA     WORD      scan
      00000007H   SYMBOL    DATA     BYTE      counter
      0000001DH   SYMBOL    DATA     CHAR      baseline_update_dir
      ---         BLOCKEND  ---      ---       LVL=1
      01000CB7H   LINE      CODE     ---       #190
      01000CB7H   LINE      CODE     ---       #191
      01000CB7H   LINE      CODE     ---       #194
      01000CBAH   LINE      CODE     ---       #195
      01000CC1H   LINE      CODE     ---       #197
      01000CD5H   LINE      CODE     ---       #198
      01000CD5H   LINE      CODE     ---       #201
      01000CD8H   LINE      CODE     ---       #202
      01000CD8H   LINE      CODE     ---       #205
      01000CE0H   LINE      CODE     ---       #206
      01000CE0H   LINE      CODE     ---       #208
      01000CF9H   LINE      CODE     ---       #209
      01000CFDH   LINE      CODE     ---       #210
      01000D04H   LINE      CODE     ---       #211
      01000D06H   LINE      CODE     ---       #214
      01000D0FH   LINE      CODE     ---       #215
      01000D0FH   LINE      CODE     ---       #216
      01000D17H   LINE      CODE     ---       #217
      01000D19H   LINE      CODE     ---       #218
      01000D22H   LINE      CODE     ---       #219
      01000D22H   LINE      CODE     ---       #220
      01000D2AH   LINE      CODE     ---       #221
      01000D2AH   LINE      CODE     ---       #222
      01000D2DH   LINE      CODE     ---       #225
      01000D31H   LINE      CODE     ---       #226
      01000D37H   LINE      CODE     ---       #227
      01000D37H   LINE      CODE     ---       #228
      01000D4DH   LINE      CODE     ---       #229
      01000D4EH   LINE      CODE     ---       #230
      01000D50H   LINE      CODE     ---       #233
      01000D57H   LINE      CODE     ---       #234
LX51 LINKER/LOCATER V4.66.30.0                                                        07/11/2017  21:49:04  PAGE 76


      01000D59H   LINE      CODE     ---       #235
      ---         BLOCKEND  ---      ---       LVL=0

      ---         MODULE    ---      ---       MASTER_ALGORITHM_CONFIG
      01001A0BH   PUBLIC    CODE     ---       CSLIB_UPDATE
      01000072H   PUBLIC    CODE     ---       INIT_SENSINGVARIABLES
      01001910H   PUBLIC    CODE     ---       CSLIB_INITLIBRARY
      01001B99H   PUBLIC    CODE     ---       CSLIB_INITHARDWARE
      00000000H   SYMBOL    CODE     WORD      _ICE_DUMMY_
      01001B99H   BLOCK     ---      ---       LVL=1
      01001B99H   LINE      CODE     ---       #47
      01001B99H   LINE      CODE     ---       #48
      01001B99H   LINE      CODE     ---       #50
      01001B9CH   LINE      CODE     ---       #51
      ---         BLOCKEND  ---      ---       LVL=0
      01001910H   BLOCK     ---      ---       LVL=1
      01001910H   LINE      CODE     ---       #62
      01001910H   LINE      CODE     ---       #63
      01001910H   LINE      CODE     ---       #66
      01001913H   LINE      CODE     ---       #67
      01001916H   LINE      CODE     ---       #68
      01001919H   LINE      CODE     ---       #69
      0100191CH   LINE      CODE     ---       #70
      0100191FH   LINE      CODE     ---       #71
      01001922H   LINE      CODE     ---       #72
      01001925H   LINE      CODE     ---       #73
      ---         BLOCKEND  ---      ---       LVL=0
      01000072H   BLOCK     ---      ---       LVL=1
      01000072H   LINE      CODE     ---       #84
      01000072H   LINE      CODE     ---       #85
      01000072H   LINE      CODE     ---       #86
      ---         BLOCKEND  ---      ---       LVL=0
      01001A0BH   BLOCK     ---      ---       LVL=1
      01001A0BH   LINE      CODE     ---       #94
      01001A0BH   LINE      CODE     ---       #95
      01001A0BH   LINE      CODE     ---       #96
      01001A0EH   LINE      CODE     ---       #97
      01001A11H   LINE      CODE     ---       #98
      01001A14H   LINE      CODE     ---       #101
      01001A17H   LINE      CODE     ---       #103
      01001A1AH   LINE      CODE     ---       #105
      ---         BLOCKEND  ---      ---       LVL=0

      ---         MODULE    ---      ---       NOISE_ROUTINES
      000000D2H   PUBLIC    IDATA    WORD      CSLIB_SYSTEMNOISEAVERAGE
      000000D0H   PUBLIC    IDATA    WORD      SYSTEM_NOISE
      000000CCH   PUBLIC    IDATA    ---       CSLIB_SYSTEMNOISEAVERAGE_INTERNAL
      0100142AH   PUBLIC    CODE     ---       _CSLIB_CHECKNOISEONCHANNEL
      010007D6H   PUBLIC    CODE     ---       UPDATEALLNOISELEVELS
      01001B24H   PUBLIC    CODE     ---       INIT_NOISEROUTINES
      00000000H   SYMBOL    CODE     WORD      _ICE_DUMMY_
      01001B37H   SYMBOL    CODE     ---       Com000E
      01001B37H   SYMBOL    CODE     NEAR LAB  L?0015
      01001B37H   BLOCK     ---      ---       LVL=1
      ---         BLOCKEND  ---      ---       LVL=0
      01001B24H   BLOCK     ---      ---       LVL=1
      01001B24H   LINE      CODE     ---       #28
      01001B24H   LINE      CODE     ---       #29
      01001B24H   LINE      CODE     ---       #34
      01001B2DH   LINE      CODE     ---       #35
      ---         BLOCKEND  ---      ---       LVL=0
      010007D6H   BLOCK     ---      ---       LVL=1
LX51 LINKER/LOCATER V4.66.30.0                                                        07/11/2017  21:49:04  PAGE 77


      010007D6H   BLOCK     ---      ---       LVL=2
      000000BDH   SYMBOL    IDATA    BYTE      x
      000000BEH   SYMBOL    IDATA    WORD      current_sample
      000000C0H   SYMBOL    IDATA    WORD      previous_sample
      000000C2H   SYMBOL    IDATA    WORD      noise
      ---         BLOCKEND  ---      ---       LVL=1
      010007D6H   LINE      CODE     ---       #48
      010007D6H   LINE      CODE     ---       #49
      010007D6H   LINE      CODE     ---       #53
      010007DCH   LINE      CODE     ---       #54
      010007EBH   LINE      CODE     ---       #55
      010007EBH   LINE      CODE     ---       #57
      010007F7H   LINE      CODE     ---       #58
      01000807H   LINE      CODE     ---       #61
      01000814H   LINE      CODE     ---       #62
      01000822H   LINE      CODE     ---       #64
      01000834H   LINE      CODE     ---       #67
      0100085EH   LINE      CODE     ---       #69
      01000866H   LINE      CODE     ---       #70
      0100086CH   LINE      CODE     ---       #73
      01000872H   LINE      CODE     ---       #81
      010008B5H   LINE      CODE     ---       #85
      010008CBH   LINE      CODE     ---       #86
      ---         BLOCKEND  ---      ---       LVL=0
      0100142AH   BLOCK     ---      ---       LVL=1
      0000001DH   SYMBOL    DATA     BYTE      index
      0100142CH   BLOCK     ---      ---       LVL=2
      00000007H   SYMBOL    DATA     BYTE      x
      ---         BLOCKEND  ---      ---       LVL=1
      0100142AH   LINE      CODE     ---       #97
      0100142CH   LINE      CODE     ---       #98
      0100142CH   LINE      CODE     ---       #101
      0100142EH   LINE      CODE     ---       #102
      0100142EH   LINE      CODE     ---       #106
      0100144BH   LINE      CODE     ---       #107
      0100144BH   LINE      CODE     ---       #108
      0100145CH   LINE      CODE     ---       #109
      0100145CH   LINE      CODE     ---       #110
      01001460H   LINE      CODE     ---       #111
      01001466H   LINE      CODE     ---       #113
      ---         BLOCKEND  ---      ---       LVL=0

      ---         MODULE    ---      ---       SENSOR_NODE_ROUTINES
      01001956H   PUBLIC    CODE     ---       CSLIB_INITSENSORSTRUCT_TS
      01001AECH   PUBLIC    CODE     ---       _CSLIB_ISSENSORDEBOUNCEACTIVE
      01001ABAH   PUBLIC    CODE     ---       _CSLIB_GETUNPACKEDTOUCHDELTA
      0100177AH   PUBLIC    CODE     ---       CSLIB_ANYSENSORDEBOUNCEACTIVE
      01001AE0H   PUBLIC    CODE     ---       _CSLIB_ISSENSORSINGLEACTIVE
      01001B51H   PUBLIC    CODE     ---       _RESETACTIVEDEBOUNCECOUNT
      01001B49H   PUBLIC    CODE     ---       _RESETINACTIVEDEBOUNCECOUNT
      010015FAH   PUBLIC    CODE     ---       _INCREMENTINACTIVEDEBOUNCECOUNT
      01001467H   PUBLIC    CODE     ---       _INCREMENTACTIVEDEBOUNCECOUNT
      01001B40H   PUBLIC    CODE     ---       _CSLIB_GETACTIVEDEBOUNCECOUNT
      010016DCH   PUBLIC    CODE     ---       _CSLIB_NODEGETPROCESS
      01001360H   PUBLIC    CODE     ---       _CSLIB_NODEGETRAW
      01001A6AH   PUBLIC    CODE     ---       _CSLIB_NODEOVERWRITEPROCESS
      01000003H   PUBLIC    CODE     ---       _CSLIB_NODEPUSHPROCESS
      010011BAH   PUBLIC    CODE     ---       _CSLIB_NODEPUSHRAW
      01001312H   PUBLIC    CODE     ---       _CSLIB_RESETSENSORSTRUCT_T
      00000000H   SYMBOL    CODE     WORD      _ICE_DUMMY_
      01001080H   SYMBOL    CODE     ---       Com0036
      01001080H   SYMBOL    CODE     NEAR LAB  L?0055
LX51 LINKER/LOCATER V4.66.30.0                                                        07/11/2017  21:49:04  PAGE 78


      01001081H   SYMBOL    CODE     NEAR LAB  L?0056
      01001091H   SYMBOL    CODE     NEAR LAB  L?0057
      01001094H   SYMBOL    CODE     NEAR LAB  L?0058
      010010A3H   SYMBOL    CODE     NEAR LAB  L?0059
      010010A6H   SYMBOL    CODE     NEAR LAB  L?0060
      010010B0H   SYMBOL    CODE     NEAR LAB  L?0061
      010010C5H   SYMBOL    CODE     NEAR LAB  L?0062
      010010D5H   SYMBOL    CODE     NEAR LAB  L?0063
      010010E4H   SYMBOL    CODE     NEAR LAB  L?0064
      01001080H   BLOCK     ---      ---       LVL=1
      ---         BLOCKEND  ---      ---       LVL=0
      01001312H   BLOCK     ---      ---       LVL=1
      0000001DH   SYMBOL    DATA     BYTE      sensor_index
      00000004H   SYMBOL    DATA     WORD      fill_value
      01001314H   BLOCK     ---      ---       LVL=2
      00000007H   SYMBOL    DATA     BYTE      index
      ---         BLOCKEND  ---      ---       LVL=1
      01001312H   LINE      CODE     ---       #22
      01001314H   LINE      CODE     ---       #23
      01001314H   LINE      CODE     ---       #27
      0100131CH   LINE      CODE     ---       #28
      0100131CH   LINE      CODE     ---       #29
      01001329H   LINE      CODE     ---       #30
      01001331H   LINE      CODE     ---       #32
      01001334H   LINE      CODE     ---       #34
      01001346H   LINE      CODE     ---       #35
      0100135BH   LINE      CODE     ---       #40
      ---         BLOCKEND  ---      ---       LVL=0
      010011BAH   BLOCK     ---      ---       LVL=1
      00000007H   SYMBOL    DATA     BYTE      sensor_index
      00000004H   SYMBOL    DATA     WORD      new_value
      010011BAH   BLOCK     ---      ---       LVL=2
      000000C0H   SYMBOL    IDATA    BYTE      index
      000000C1H   SYMBOL    IDATA    ---       buffer
      00000001H   SYMBOL    DATA     BYTE      full_flag
      ---         BLOCKEND  ---      ---       LVL=1
      010011BAH   LINE      CODE     ---       #53
      010011BAH   LINE      CODE     ---       #54
      010011BAH   LINE      CODE     ---       #55
      010011BEH   LINE      CODE     ---       #58
      010011BFH   LINE      CODE     ---       #60
      010011CAH   LINE      CODE     ---       #63
      010011D0H   LINE      CODE     ---       #64
      010011D9H   LINE      CODE     ---       #65
      010011D9H   LINE      CODE     ---       #66
      01001203H   LINE      CODE     ---       #67
      01001204H   LINE      CODE     ---       #68
      01001206H   LINE      CODE     ---       #69
      01001215H   LINE      CODE     ---       #71
      01001217H   LINE      CODE     ---       #72
      ---         BLOCKEND  ---      ---       LVL=0
      01000003H   BLOCK     ---      ---       LVL=1
      00000007H   SYMBOL    DATA     BYTE      sensor_index
      0000002CH   SYMBOL    DATA     WORD      new_value
      01000007H   BLOCK     ---      ---       LVL=2
      000000C0H   SYMBOL    IDATA    BYTE      full_flag
      000000C1H   SYMBOL    IDATA    BYTE      index
      000000C2H   SYMBOL    IDATA    ---       buffer
      ---         BLOCKEND  ---      ---       LVL=1
      01000003H   LINE      CODE     ---       #81
      01000007H   LINE      CODE     ---       #82
      01000007H   LINE      CODE     ---       #83
LX51 LINKER/LOCATER V4.66.30.0                                                        07/11/2017  21:49:04  PAGE 79


      0100000BH   LINE      CODE     ---       #84
      0100000DH   LINE      CODE     ---       #85
      01000021H   LINE      CODE     ---       #86
      01000027H   LINE      CODE     ---       #87
      0100002FH   LINE      CODE     ---       #88
      0100002FH   LINE      CODE     ---       #89
      01000056H   LINE      CODE     ---       #90
      01000059H   LINE      CODE     ---       #91
      0100005BH   LINE      CODE     ---       #92
      0100006DH   LINE      CODE     ---       #94
      01000071H   LINE      CODE     ---       #95
      ---         BLOCKEND  ---      ---       LVL=0
      01001A6AH   BLOCK     ---      ---       LVL=1
      00000007H   SYMBOL    DATA     BYTE      sensor_index
      00000005H   SYMBOL    DATA     BYTE      buffer_index
      00000002H   SYMBOL    DATA     WORD      new_value
      01001A6AH   LINE      CODE     ---       #106
      01001A6AH   LINE      CODE     ---       #107
      01001A6AH   LINE      CODE     ---       #108
      01001A77H   LINE      CODE     ---       #109
      ---         BLOCKEND  ---      ---       LVL=0
      01001360H   BLOCK     ---      ---       LVL=1
      0000001DH   SYMBOL    DATA     BYTE      sensor_index
      0000001EH   SYMBOL    DATA     CHAR      index
      01001360H   LINE      CODE     ---       #122
      01001364H   LINE      CODE     ---       #123
      01001364H   LINE      CODE     ---       #125
      01001374H   LINE      CODE     ---       #126
      01001374H   LINE      CODE     ---       #127
      0100138DH   LINE      CODE     ---       #128
      0100138DH   LINE      CODE     ---       #130
      0100138DH   LINE      CODE     ---       #131
      010013ADH   LINE      CODE     ---       #132
      010013ADH   LINE      CODE     ---       #133
      ---         BLOCKEND  ---      ---       LVL=0
      010016DCH   BLOCK     ---      ---       LVL=1
      00000007H   SYMBOL    DATA     BYTE      sensor_index
      00000005H   SYMBOL    DATA     BYTE      index
      010016DCH   LINE      CODE     ---       #146
      010016DCH   LINE      CODE     ---       #147
      010016DCH   LINE      CODE     ---       #149
      010016E6H   LINE      CODE     ---       #150
      010016E6H   LINE      CODE     ---       #151
      010016F8H   LINE      CODE     ---       #152
      010016F8H   LINE      CODE     ---       #154
      010016F8H   LINE      CODE     ---       #155
      01001704H   LINE      CODE     ---       #156
      01001704H   LINE      CODE     ---       #158
      ---         BLOCKEND  ---      ---       LVL=0
      00000000H   BLOCK     ---      ---       LVL=1
      00000000H   BLOCK     ---      ---       LVL=2
      ---         BLOCKEND  ---      ---       LVL=1
      ---         BLOCKEND  ---      ---       LVL=0
      01001B40H   BLOCK     ---      ---       LVL=1
      00000007H   SYMBOL    DATA     BYTE      sensor_index
      01001B40H   LINE      CODE     ---       #188
      01001B40H   LINE      CODE     ---       #189
      01001B40H   LINE      CODE     ---       #190
      01001B48H   LINE      CODE     ---       #191
      ---         BLOCKEND  ---      ---       LVL=0
      01001467H   BLOCK     ---      ---       LVL=1
      00000007H   SYMBOL    DATA     BYTE      sensor_index
LX51 LINKER/LOCATER V4.66.30.0                                                        07/11/2017  21:49:04  PAGE 80


      01001467H   BLOCK     ---      ---       LVL=2
      00000005H   SYMBOL    DATA     BYTE      temp_var
      ---         BLOCKEND  ---      ---       LVL=1
      01001467H   LINE      CODE     ---       #199
      01001467H   LINE      CODE     ---       #200
      01001467H   LINE      CODE     ---       #202
      01001470H   LINE      CODE     ---       #203
      01001475H   LINE      CODE     ---       #204
      0100147BH   LINE      CODE     ---       #205
      01001488H   LINE      CODE     ---       #207
      01001491H   LINE      CODE     ---       #208
      01001491H   LINE      CODE     ---       #210
      01001498H   LINE      CODE     ---       #211
      0100149BH   LINE      CODE     ---       #212
      0100149BH   LINE      CODE     ---       #214
      0100149BH   LINE      CODE     ---       #215
      0100149DH   LINE      CODE     ---       #216
      0100149DH   LINE      CODE     ---       #217
      ---         BLOCKEND  ---      ---       LVL=0
      010015FAH   BLOCK     ---      ---       LVL=1
      00000007H   SYMBOL    DATA     BYTE      sensor_index
      010015FAH   BLOCK     ---      ---       LVL=2
      00000005H   SYMBOL    DATA     BYTE      temp_var
      ---         BLOCKEND  ---      ---       LVL=1
      010015FAH   LINE      CODE     ---       #219
      010015FAH   LINE      CODE     ---       #220
      010015FAH   LINE      CODE     ---       #222
      01001602H   LINE      CODE     ---       #223
      01001607H   LINE      CODE     ---       #224
      0100160DH   LINE      CODE     ---       #225
      01001613H   LINE      CODE     ---       #226
      0100161CH   LINE      CODE     ---       #227
      0100161CH   LINE      CODE     ---       #229
      01001623H   LINE      CODE     ---       #230
      01001626H   LINE      CODE     ---       #231
      01001626H   LINE      CODE     ---       #233
      01001626H   LINE      CODE     ---       #234
      01001628H   LINE      CODE     ---       #235
      01001628H   LINE      CODE     ---       #236
      ---         BLOCKEND  ---      ---       LVL=0
      01001B49H   BLOCK     ---      ---       LVL=1
      00000007H   SYMBOL    DATA     BYTE      sensor_index
      01001B49H   LINE      CODE     ---       #238
      01001B49H   LINE      CODE     ---       #239
      01001B49H   LINE      CODE     ---       #240
      01001B50H   LINE      CODE     ---       #241
      ---         BLOCKEND  ---      ---       LVL=0
      01001B51H   BLOCK     ---      ---       LVL=1
      00000007H   SYMBOL    DATA     BYTE      sensor_index
      01001B51H   LINE      CODE     ---       #242
      01001B51H   LINE      CODE     ---       #243
      01001B51H   LINE      CODE     ---       #244
      01001B58H   LINE      CODE     ---       #245
      ---         BLOCKEND  ---      ---       LVL=0
      01001AE0H   BLOCK     ---      ---       LVL=1
      00000006H   SYMBOL    DATA     INT       sensor_index
      01001AE0H   LINE      CODE     ---       #252
      01001AE0H   LINE      CODE     ---       #253
      01001AE0H   LINE      CODE     ---       #254
      01001AE6H   LINE      CODE     ---       #255
      01001AE9H   LINE      CODE     ---       #257
      01001AEBH   LINE      CODE     ---       #258
LX51 LINKER/LOCATER V4.66.30.0                                                        07/11/2017  21:49:04  PAGE 81


      ---         BLOCKEND  ---      ---       LVL=0
      0100177AH   BLOCK     ---      ---       LVL=1
      0100177AH   BLOCK     ---      ---       LVL=2
      0000001BH   SYMBOL    DATA     BYTE      inactive_count
      0000001CH   SYMBOL    DATA     BYTE      x
      0000001DH   SYMBOL    DATA     BYTE      anysensor_active
      ---         BLOCKEND  ---      ---       LVL=1
      0100177AH   LINE      CODE     ---       #268
      0100177AH   LINE      CODE     ---       #269
      0100177AH   LINE      CODE     ---       #272
      0100177DH   LINE      CODE     ---       #273
      0100177FH   LINE      CODE     ---       #275
      01001788H   LINE      CODE     ---       #276
      01001788H   LINE      CODE     ---       #277
      01001792H   LINE      CODE     ---       #278
      01001792H   LINE      CODE     ---       #279
      01001795H   LINE      CODE     ---       #280
      01001797H   LINE      CODE     ---       #281
      01001797H   LINE      CODE     ---       #282
      0100179BH   LINE      CODE     ---       #284
      0100179DH   LINE      CODE     ---       #285
      ---         BLOCKEND  ---      ---       LVL=0
      01001ABAH   BLOCK     ---      ---       LVL=1
      00000007H   SYMBOL    DATA     BYTE      sensor_index
      01001ABAH   LINE      CODE     ---       #287
      01001ABAH   LINE      CODE     ---       #288
      01001ABAH   LINE      CODE     ---       #290
      01001AC6H   LINE      CODE     ---       #293
      ---         BLOCKEND  ---      ---       LVL=0
      01001AECH   BLOCK     ---      ---       LVL=1
      00000006H   SYMBOL    DATA     INT       sensor_index
      01001AECH   LINE      CODE     ---       #301
      01001AECH   LINE      CODE     ---       #302
      01001AECH   LINE      CODE     ---       #304
      01001AF2H   LINE      CODE     ---       #305
      01001AF5H   LINE      CODE     ---       #307
      01001AF7H   LINE      CODE     ---       #308
      ---         BLOCKEND  ---      ---       LVL=0
      01001956H   BLOCK     ---      ---       LVL=1
      01001956H   BLOCK     ---      ---       LVL=2
      0000001CH   SYMBOL    DATA     BYTE      index
      ---         BLOCKEND  ---      ---       LVL=1
      01001956H   LINE      CODE     ---       #317
      01001956H   LINE      CODE     ---       #318
      01001956H   LINE      CODE     ---       #320
      01001960H   LINE      CODE     ---       #321
      01001960H   LINE      CODE     ---       #322
      01001968H   LINE      CODE     ---       #323
      0100196CH   LINE      CODE     ---       #324
      ---         BLOCKEND  ---      ---       LVL=0

      ---         MODULE    ---      ---       BASELINE_ROUTINES
      000000DBH   PUBLIC    IDATA    ---       SCRATCH_BUFFER
      01000A95H   PUBLIC    CODE     ---       INIT_BASELINEROUTINES
      010019AEH   PUBLIC    CODE     ---       UPDATEALLBASELINES
      010008CCH   PUBLIC    CODE     ---       _UPDATEBASELINE
      00000000H   SYMBOL    CODE     WORD      _ICE_DUMMY_
      0100149EH   SYMBOL    CODE     ---       Com0022
      0100149EH   SYMBOL    CODE     NEAR LAB  L?0035
      0100149EH   SYMBOL    CODE     NEAR LAB  L?0036
      010014A0H   SYMBOL    CODE     NEAR LAB  L?0037
      010014A3H   SYMBOL    CODE     NEAR LAB  L?0038
LX51 LINKER/LOCATER V4.66.30.0                                                        07/11/2017  21:49:04  PAGE 82


      010014AFH   SYMBOL    CODE     NEAR LAB  L?0039
      010014AFH   SYMBOL    CODE     NEAR LAB  L?0040
      010014C0H   SYMBOL    CODE     NEAR LAB  L?0041
      0100149EH   BLOCK     ---      ---       LVL=1
      ---         BLOCKEND  ---      ---       LVL=0
      010008CCH   BLOCK     ---      ---       LVL=1
      0000001CH   SYMBOL    DATA     BYTE      sensor_index
      010008CEH   BLOCK     ---      ---       LVL=2
      000000BDH   SYMBOL    IDATA    LONG      raw_direction
      000000C1H   SYMBOL    IDATA    WORD      baseline
      000000C3H   SYMBOL    IDATA    WORD      comp_value
      ---         BLOCKEND  ---      ---       LVL=1
      010008CCH   LINE      CODE     ---       #25
      010008CEH   LINE      CODE     ---       #26
      010008CEH   LINE      CODE     ---       #28
      010008D7H   LINE      CODE     ---       #32
      010008E4H   LINE      CODE     ---       #36
      010008F1H   LINE      CODE     ---       #37
      010008F1H   LINE      CODE     ---       #39
      010008F1H   LINE      CODE     ---       #42
      010008FBH   LINE      CODE     ---       #43
      01000909H   LINE      CODE     ---       #46
      01000917H   LINE      CODE     ---       #50
      0100092AH   LINE      CODE     ---       #51
      01000933H   LINE      CODE     ---       #52
      0100093AH   LINE      CODE     ---       #54
      01000941H   LINE      CODE     ---       #58
      0100094DH   LINE      CODE     ---       #59
      0100094DH   LINE      CODE     ---       #60
      01000957H   LINE      CODE     ---       #61
      01000957H   LINE      CODE     ---       #62
      0100095AH   LINE      CODE     ---       #65
      01000962H   LINE      CODE     ---       #66
      01000962H   LINE      CODE     ---       #70
      0100096CH   LINE      CODE     ---       #71
      0100096CH   LINE      CODE     ---       #76
      01000994H   LINE      CODE     ---       #77
      0100099EH   LINE      CODE     ---       #85
      0100099EH   LINE      CODE     ---       #86
      010009ADH   LINE      CODE     ---       #87
      010009ADH   LINE      CODE     ---       #89
      010009B2H   LINE      CODE     ---       #90
      010009B2H   LINE      CODE     ---       #91
      ---         BLOCKEND  ---      ---       LVL=0
      010019AEH   BLOCK     ---      ---       LVL=1
      010019AEH   BLOCK     ---      ---       LVL=2
      0000001BH   SYMBOL    DATA     BYTE      i
      ---         BLOCKEND  ---      ---       LVL=1
      010019AEH   LINE      CODE     ---       #99
      010019AEH   LINE      CODE     ---       #100
      010019AEH   LINE      CODE     ---       #102
      010019B8H   LINE      CODE     ---       #103
      010019B8H   LINE      CODE     ---       #104
      010019BDH   LINE      CODE     ---       #105
      010019C1H   LINE      CODE     ---       #106
      ---         BLOCKEND  ---      ---       LVL=0
      01000A95H   BLOCK     ---      ---       LVL=1
      01000A95H   BLOCK     ---      ---       LVL=2
      0000001CH   SYMBOL    DATA     BYTE      j
      0000001DH   SYMBOL    DATA     BYTE      i
      0000001EH   SYMBOL    DATA     WORD      count
      00000020H   SYMBOL    DATA     DWORD     Avg_Baseline
LX51 LINKER/LOCATER V4.66.30.0                                                        07/11/2017  21:49:04  PAGE 83


      00000024H   SYMBOL    DATA     DWORD     RawAvg_Baseline
      00000028H   SYMBOL    DATA     WORD      min
      0000002AH   SYMBOL    DATA     WORD      max
      00000002H   SYMBOL    DATA     WORD      newest_sample
      ---         BLOCKEND  ---      ---       LVL=1
      01000A95H   LINE      CODE     ---       #115
      01000A95H   LINE      CODE     ---       #116
      01000A95H   LINE      CODE     ---       #118
      01000A9AH   LINE      CODE     ---       #119
      01000AA2H   LINE      CODE     ---       #120
      01000AAAH   LINE      CODE     ---       #125
      01000AB6H   LINE      CODE     ---       #126
      01000AB6H   LINE      CODE     ---       #127
      01000ABBH   LINE      CODE     ---       #128
      01000AC1H   LINE      CODE     ---       #129
      01000ACAH   LINE      CODE     ---       #133
      01000ACCH   LINE      CODE     ---       #134
      01000ACCH   LINE      CODE     ---       #135
      01000AD7H   LINE      CODE     ---       #136
      01000ADEH   LINE      CODE     ---       #139
      01000AE1H   LINE      CODE     ---       #140
      01000AE1H   LINE      CODE     ---       #141
      01000AEAH   LINE      CODE     ---       #144
      01000AF6H   LINE      CODE     ---       #145
      01000B0DH   LINE      CODE     ---       #147
      01000B16H   LINE      CODE     ---       #151
      01000B2FH   LINE      CODE     ---       #153
      01000B39H   LINE      CODE     ---       #155
      01000B43H   LINE      CODE     ---       #156
      01000B43H   LINE      CODE     ---       #157
      01000B4CH   LINE      CODE     ---       #158
      01000B55H   LINE      CODE     ---       #159
      01000B59H   LINE      CODE     ---       #161
      01000B5EH   LINE      CODE     ---       #162
      ---         BLOCKEND  ---      ---       LVL=0

      ---         MODULE    ---      ---       DATA_SHAPING_ROUTINES
      0100179EH   PUBLIC    CODE     ---       SHAPESCANNEDDATA
      01001864H   PUBLIC    CODE     ---       INIT_DATASHAPINGROUTINES
      00000000H   SYMBOL    CODE     WORD      _ICE_DUMMY_
      01001AC7H   SYMBOL    CODE     ---       Com0009
      01001AC7H   SYMBOL    CODE     NEAR LAB  L?0010
      01001AC7H   BLOCK     ---      ---       LVL=1
      ---         BLOCKEND  ---      ---       LVL=0
      01001864H   BLOCK     ---      ---       LVL=1
      01001864H   BLOCK     ---      ---       LVL=2
      0000001CH   SYMBOL    DATA     BYTE      index
      ---         BLOCKEND  ---      ---       LVL=1
      01001864H   LINE      CODE     ---       #20
      01001864H   LINE      CODE     ---       #21
      01001864H   LINE      CODE     ---       #23
      01001867H   LINE      CODE     ---       #24
      01001867H   LINE      CODE     ---       #25
      01001878H   LINE      CODE     ---       #26
      01001881H   LINE      CODE     ---       #27
      ---         BLOCKEND  ---      ---       LVL=0
      0100179EH   BLOCK     ---      ---       LVL=1
      0100179EH   BLOCK     ---      ---       LVL=2
      000000BDH   SYMBOL    IDATA    BYTE      index
      ---         BLOCKEND  ---      ---       LVL=1
      0100179EH   LINE      CODE     ---       #35
      0100179EH   LINE      CODE     ---       #36
LX51 LINKER/LOCATER V4.66.30.0                                                        07/11/2017  21:49:04  PAGE 84


      0100179EH   LINE      CODE     ---       #39
      010017ABH   LINE      CODE     ---       #40
      010017ABH   LINE      CODE     ---       #41
      010017BBH   LINE      CODE     ---       #43
      010017C0H   LINE      CODE     ---       #44
      ---         BLOCKEND  ---      ---       LVL=0

      ---         MODULE    ---      ---       FILTER_CONFIG
      0100190AH   PUBLIC    CODE     ---       DATASHAPINGINIT
      01001904H   PUBLIC    CODE     ---       DATASHAPINGUPDATE
      010018F5H   PUBLIC    CODE     ---       THRESHOLDNOISEMATRIX
      00000000H   SYMBOL    CODE     WORD      _ICE_DUMMY_

      ---         MODULE    ---      ---       SCANNING_ROUTINES
      01001BB8H   PUBLIC    CODE     ---       INIT_SCANNINGROUTINES
      01001506H   PUBLIC    CODE     ---       SCANALLSENSORS
      00000000H   SYMBOL    CODE     WORD      _ICE_DUMMY_
      01001506H   BLOCK     ---      ---       LVL=1
      01001506H   BLOCK     ---      ---       LVL=2
      000000BDH   SYMBOL    IDATA    BYTE      x
      000000BEH   SYMBOL    IDATA    WORD      Scan_Result
      ---         BLOCKEND  ---      ---       LVL=1
      01001506H   LINE      CODE     ---       #24
      01001506H   LINE      CODE     ---       #25
      01001506H   LINE      CODE     ---       #29
      01001513H   LINE      CODE     ---       #30
      01001513H   LINE      CODE     ---       #31
      0100151FH   LINE      CODE     ---       #32
      01001526H   LINE      CODE     ---       #33
      01001533H   LINE      CODE     ---       #34
      01001538H   LINE      CODE     ---       #35
      ---         BLOCKEND  ---      ---       LVL=0
      01001BB8H   BLOCK     ---      ---       LVL=1
      01001BB8H   LINE      CODE     ---       #44
      01001BB8H   LINE      CODE     ---       #45
      01001BB8H   LINE      CODE     ---       #46
      ---         BLOCKEND  ---      ---       LVL=0

      ---         MODULE    ---      ---       THRESHOLD_ROUTINES
      01001BB9H   PUBLIC    CODE     ---       UPDATEALLTOUCHDELTAS
      01000B5FH   PUBLIC    CODE     ---       _THRESHOLDUPDATE_WITHHYSTANDDEBOUNCE
      010010EEH   PUBLIC    CODE     ---       UPDATETHRESHOLDS
      01001629H   PUBLIC    CODE     ---       INIT_THRESHOLDROUTINES
      00000000H   SYMBOL    CODE     WORD      _ICE_DUMMY_
      01001882H   SYMBOL    CODE     ---       Com001C
      01001882H   SYMBOL    CODE     NEAR LAB  L?0029
      01001882H   SYMBOL    CODE     NEAR LAB  L?0030
      01001884H   SYMBOL    CODE     NEAR LAB  L?0031
      01001887H   SYMBOL    CODE     NEAR LAB  L?0032
      01001894H   SYMBOL    CODE     NEAR LAB  L?0033
      01001895H   SYMBOL    CODE     NEAR LAB  L?0034
      01001897H   SYMBOL    CODE     NEAR LAB  L?0035
      01001882H   BLOCK     ---      ---       LVL=1
      ---         BLOCKEND  ---      ---       LVL=0
      01001629H   BLOCK     ---      ---       LVL=1
      01001629H   BLOCK     ---      ---       LVL=2
      00000007H   SYMBOL    DATA     BYTE      index
      ---         BLOCKEND  ---      ---       LVL=1
      01001629H   LINE      CODE     ---       #21
      01001629H   LINE      CODE     ---       #22
      01001629H   LINE      CODE     ---       #24
      01001631H   LINE      CODE     ---       #25
LX51 LINKER/LOCATER V4.66.30.0                                                        07/11/2017  21:49:04  PAGE 85


      01001631H   LINE      CODE     ---       #26
      01001638H   LINE      CODE     ---       #27
      01001649H   LINE      CODE     ---       #28
      01001653H   LINE      CODE     ---       #29
      01001656H   LINE      CODE     ---       #30
      ---         BLOCKEND  ---      ---       LVL=0
      010010EEH   BLOCK     ---      ---       LVL=1
      010010EEH   BLOCK     ---      ---       LVL=2
      000000BDH   SYMBOL    IDATA    BYTE      index
      000000BEH   SYMBOL    IDATA    BYTE      threshnoisestructindex
      000000BFH   SYMBOL    IDATA    BYTE      noise_level
      ---         BLOCKEND  ---      ---       LVL=1
      010010EEH   LINE      CODE     ---       #39
      010010EEH   LINE      CODE     ---       #40
      010010EEH   LINE      CODE     ---       #42
      010010FBH   LINE      CODE     ---       #43
      010010FBH   LINE      CODE     ---       #45
      01001102H   LINE      CODE     ---       #49
      0100110EH   LINE      CODE     ---       #50
      0100110EH   LINE      CODE     ---       #52
      01001125H   LINE      CODE     ---       #54
      01001125H   LINE      CODE     ---       #55
      01001147H   LINE      CODE     ---       #56
      01001149H   LINE      CODE     ---       #57
      01001149H   LINE      CODE     ---       #58
      0100114EH   LINE      CODE     ---       #59
      01001153H   LINE      CODE     ---       #60
      ---         BLOCKEND  ---      ---       LVL=0
      01000B5FH   BLOCK     ---      ---       LVL=1
      00000006H   SYMBOL    DATA     WORD      new_value
      0000001EH   SYMBOL    DATA     BYTE      index
      01000B61H   BLOCK     ---      ---       LVL=2
      000000C0H   SYMBOL    IDATA    WORD      active_threshold
      000000C2H   SYMBOL    IDATA    WORD      inactive_threshold
      000000C4H   SYMBOL    IDATA    WORD      currentBaseline
      000000C6H   SYMBOL    IDATA    WORD      debounce_active
      000000C8H   SYMBOL    IDATA    WORD      debounce_count
      000000CAH   SYMBOL    IDATA    INT       current_delta
      ---         BLOCKEND  ---      ---       LVL=1
      01000B5FH   LINE      CODE     ---       #71
      01000B61H   LINE      CODE     ---       #72
      01000B61H   LINE      CODE     ---       #78
      01000B7CH   LINE      CODE     ---       #79
      01000B83H   LINE      CODE     ---       #80
      01000B89H   LINE      CODE     ---       #84
      01000B90H   LINE      CODE     ---       #85
      01000B90H   LINE      CODE     ---       #86
      01000B96H   LINE      CODE     ---       #87
      01000B98H   LINE      CODE     ---       #89
      01000BA9H   LINE      CODE     ---       #91
      01000BB4H   LINE      CODE     ---       #92
      01000BC0H   LINE      CODE     ---       #95
      01000BC7H   LINE      CODE     ---       #96
      01000BC7H   LINE      CODE     ---       #100
      01000BCCH   LINE      CODE     ---       #101
      01000BCCH   LINE      CODE     ---       #103
      01000BD1H   LINE      CODE     ---       #104
      01000BD1H   LINE      CODE     ---       #108
      01000BD9H   LINE      CODE     ---       #109
      01000BD9H   LINE      CODE     ---       #110
      01000BE1H   LINE      CODE     ---       #111
      01000BE1H   LINE      CODE     ---       #113
LX51 LINKER/LOCATER V4.66.30.0                                                        07/11/2017  21:49:04  PAGE 86


      01000BE7H   LINE      CODE     ---       #114
      01000BE7H   LINE      CODE     ---       #115
      01000BE7H   LINE      CODE     ---       #116
      01000BE8H   LINE      CODE     ---       #122
      01000BF1H   LINE      CODE     ---       #123
      01000BF1H   LINE      CODE     ---       #124
      01000BF7H   LINE      CODE     ---       #125
      01000BF7H   LINE      CODE     ---       #126
      01000BFCH   LINE      CODE     ---       #127
      01000BFCH   LINE      CODE     ---       #131
      01000C01H   LINE      CODE     ---       #132
      01000C01H   LINE      CODE     ---       #133
      01000C09H   LINE      CODE     ---       #134
      01000C09H   LINE      CODE     ---       #136
      01000C0FH   LINE      CODE     ---       #137
      01000C0FH   LINE      CODE     ---       #138
      01000C0FH   LINE      CODE     ---       #139
      01000C0FH   LINE      CODE     ---       #140
      ---         BLOCKEND  ---      ---       LVL=0
      01001BB9H   BLOCK     ---      ---       LVL=1
      01001BB9H   LINE      CODE     ---       #159
      01001BB9H   LINE      CODE     ---       #160
      01001BB9H   LINE      CODE     ---       #162
      ---         BLOCKEND  ---      ---       LVL=0

      ---         MODULE    ---      ---       DATA_PROCESSING
      000000DFH   PUBLIC    IDATA    BYTE      JITTER
      01001AF8H   PUBLIC    CODE     ---       _THRESHOLDDETECT_PROCESSEDDATA
      010009B3H   PUBLIC    CODE     ---       UPDATEPROCESSDATA
      010014D2H   PUBLIC    CODE     ---       INIT_PROCESSDATA
      00000000H   SYMBOL    CODE     WORD      _ICE_DUMMY_
      010019C2H   SYMBOL    CODE     ---       Com0013
      010019C2H   SYMBOL    CODE     NEAR LAB  L?0020
      010019C2H   SYMBOL    CODE     NEAR LAB  L?0021
      010019CEH   SYMBOL    CODE     NEAR LAB  L?0022
      010019CEH   SYMBOL    CODE     NEAR LAB  L?0023
      010019C2H   BLOCK     ---      ---       LVL=1
      ---         BLOCKEND  ---      ---       LVL=0
      010014D2H   BLOCK     ---      ---       LVL=1
      010014D2H   BLOCK     ---      ---       LVL=2
      00000007H   SYMBOL    DATA     BYTE      index
      ---         BLOCKEND  ---      ---       LVL=1
      010014D2H   LINE      CODE     ---       #24
      010014D2H   LINE      CODE     ---       #25
      010014D2H   LINE      CODE     ---       #27
      010014DAH   LINE      CODE     ---       #28
      010014DAH   LINE      CODE     ---       #30
      010014E3H   LINE      CODE     ---       #31
      010014E6H   LINE      CODE     ---       #35
      01001500H   LINE      CODE     ---       #36
      01001503H   LINE      CODE     ---       #38
      01001505H   LINE      CODE     ---       #40
      ---         BLOCKEND  ---      ---       LVL=0
      01000A8BH   SYMBOL    CODE     NEAR LAB  L?0024
      010009B3H   BLOCK     ---      ---       LVL=1
      010009B3H   BLOCK     ---      ---       LVL=2
      000000C0H   SYMBOL    IDATA    BYTE      x
      000000C1H   SYMBOL    IDATA    WORD      inactive_threshold
      000000C3H   SYMBOL    IDATA    WORD      currentBaseline
      000000C5H   SYMBOL    IDATA    INT       y
      ---         BLOCKEND  ---      ---       LVL=1
      010009B3H   LINE      CODE     ---       #52
LX51 LINKER/LOCATER V4.66.30.0                                                        07/11/2017  21:49:04  PAGE 87


      010009B3H   LINE      CODE     ---       #53
      010009B3H   LINE      CODE     ---       #59
      010009C3H   LINE      CODE     ---       #60
      010009C3H   LINE      CODE     ---       #62
      010009DCH   LINE      CODE     ---       #64
      010009EFH   LINE      CODE     ---       #65
      010009F5H   LINE      CODE     ---       #66
      010009F5H   LINE      CODE     ---       #68
      010009FBH   LINE      CODE     ---       #70
      010009FEH   LINE      CODE     ---       #72
      010009FEH   LINE      CODE     ---       #80
      01000A20H   LINE      CODE     ---       #84
      01000A28H   LINE      CODE     ---       #85
      01000A28H   LINE      CODE     ---       #86
      01000A3CH   LINE      CODE     ---       #87
      01000A3CH   LINE      CODE     ---       #94
      01000A4FH   LINE      CODE     ---       #95
      01000A4FH   LINE      CODE     ---       #96
      01000A5CH   LINE      CODE     ---       #98
      01000A5CH   LINE      CODE     ---       #102
      01000A76H   LINE      CODE     ---       #103
      01000A76H   LINE      CODE     ---       #104
      01000A7DH   LINE      CODE     ---       #105
      01000A7FH   LINE      CODE     ---       #107
      01000A7FH   LINE      CODE     ---       #108
      01000A84H   LINE      CODE     ---       #109
      01000A84H   LINE      CODE     ---       #110
      01000A84H   LINE      CODE     ---       #112
      01000A8AH   LINE      CODE     ---       #113
      ---         BLOCKEND  ---      ---       LVL=0
      01001AF8H   BLOCK     ---      ---       LVL=1
      0000001DH   SYMBOL    DATA     BYTE      index
      01001AF8H   LINE      CODE     ---       #124
      01001AFAH   LINE      CODE     ---       #125
      01001AFAH   LINE      CODE     ---       #126
      ---         BLOCKEND  ---      ---       LVL=0

      ---         MODULE    ---      ---       EXPONENTIAL_AVERAGING
      000000E0H   PUBLIC    IDATA    BYTE      EXP_AV_DIVIDER
      01001A78H   PUBLIC    CODE     ---       _THRESHOLDDETECT_EXPONENTIALDATA
      0100051CH   PUBLIC    CODE     ---       UPDATEEXPONENTIALAVERAGING
      01001154H   PUBLIC    CODE     ---       INIT_EXPONENTIALAVERAGING
      00000000H   SYMBOL    CODE     WORD      _ICE_DUMMY_
      010013AEH   SYMBOL    CODE     ---       Com0017
      010013AEH   SYMBOL    CODE     NEAR LAB  L?0024
      010013B2H   SYMBOL    CODE     NEAR LAB  L?0025
      010013BAH   SYMBOL    CODE     NEAR LAB  L?0026
      010013C9H   SYMBOL    CODE     NEAR LAB  L?0027
      010013D6H   SYMBOL    CODE     NEAR LAB  L?0028
      010013E2H   SYMBOL    CODE     NEAR LAB  L?0029
      010013AEH   BLOCK     ---      ---       LVL=1
      ---         BLOCKEND  ---      ---       LVL=0
      01001154H   BLOCK     ---      ---       LVL=1
      01001154H   BLOCK     ---      ---       LVL=2
      0000001DH   SYMBOL    DATA     BYTE      index
      ---         BLOCKEND  ---      ---       LVL=1
      01001154H   LINE      CODE     ---       #29
      01001154H   LINE      CODE     ---       #30
      01001154H   LINE      CODE     ---       #32
      0100115EH   LINE      CODE     ---       #33
      0100115EH   LINE      CODE     ---       #34
      0100116FH   LINE      CODE     ---       #35
LX51 LINKER/LOCATER V4.66.30.0                                                        07/11/2017  21:49:04  PAGE 88


      01001183H   LINE      CODE     ---       #36
      01001187H   LINE      CODE     ---       #42
      01001193H   LINE      CODE     ---       #43
      0100119FH   LINE      CODE     ---       #44
      010011ABH   LINE      CODE     ---       #45
      010011B7H   LINE      CODE     ---       #46
      010011B9H   LINE      CODE     ---       #48
      ---         BLOCKEND  ---      ---       LVL=0
      0100051CH   BLOCK     ---      ---       LVL=1
      0100051CH   BLOCK     ---      ---       LVL=2
      020000A2H   SYMBOL    XDATA    INT       index
      020000A4H   SYMBOL    XDATA    ---       new_value
      020000A8H   SYMBOL    XDATA    BYTE      noise_check
      020000A9H   SYMBOL    XDATA    WORD      unpacked_touch_delta
      ---         BLOCKEND  ---      ---       LVL=1
      0100051CH   LINE      CODE     ---       #61
      0100051CH   LINE      CODE     ---       #62
      0100051CH   LINE      CODE     ---       #69
      0100053AH   LINE      CODE     ---       #70
      0100053AH   LINE      CODE     ---       #76
      01000544H   LINE      CODE     ---       #77
      0100054FH   LINE      CODE     ---       #79
      0100055DH   LINE      CODE     ---       #80
      01000569H   LINE      CODE     ---       #81
      01000569H   LINE      CODE     ---       #86
      01000582H   LINE      CODE     ---       #87
      01000582H   LINE      CODE     ---       #88
      01000594H   LINE      CODE     ---       #89
      01000594H   LINE      CODE     ---       #90
      01000594H   LINE      CODE     ---       #91
      010005A0H   LINE      CODE     ---       #92
      010005A0H   LINE      CODE     ---       #93
      010005BAH   LINE      CODE     ---       #94
      010005BAH   LINE      CODE     ---       #95
      010005CDH   LINE      CODE     ---       #96
      010005CDH   LINE      CODE     ---       #97
      010005CDH   LINE      CODE     ---       #101
      010005D3H   LINE      CODE     ---       #103
      010005DEH   LINE      CODE     ---       #109
      0100066CH   LINE      CODE     ---       #112
      01000680H   LINE      CODE     ---       #113
      ---         BLOCKEND  ---      ---       LVL=0
      01001A78H   BLOCK     ---      ---       LVL=1
      00000005H   SYMBOL    DATA     BYTE      index
      01001A78H   LINE      CODE     ---       #122
      01001A7AH   LINE      CODE     ---       #123
      01001A7AH   LINE      CODE     ---       #124
      ---         BLOCKEND  ---      ---       LVL=0

      ---         MODULE    ---      ---       ?C_INIT
      01000E3CH   PUBLIC    CODE     ---       ?C_START

      ---         MODULE    ---      ---       ?C?COPY
      01000146H   PUBLIC    CODE     ---       ?C?COPY

      ---         MODULE    ---      ---       ?C?IMUL
      0100016CH   PUBLIC    CODE     ---       ?C?IMUL

      ---         MODULE    ---      ---       ?C?UIDIV
      0100017EH   PUBLIC    CODE     ---       ?C?UIDIV

      ---         MODULE    ---      ---       ?C?IILDX
LX51 LINKER/LOCATER V4.66.30.0                                                        07/11/2017  21:49:04  PAGE 89


      010001D3H   PUBLIC    CODE     ---       ?C?IILDX

      ---         MODULE    ---      ---       ?C?ILDPTR
      010001E9H   PUBLIC    CODE     ---       ?C?ILDPTR

      ---         MODULE    ---      ---       ?C?ILDOPTR
      01000214H   PUBLIC    CODE     ---       ?C?ILDOPTR

      ---         MODULE    ---      ---       ?C?IILDPTR
      0100024CH   PUBLIC    CODE     ---       ?C?IILDPTR

      ---         MODULE    ---      ---       ?C?ISTPTR
      01000284H   PUBLIC    CODE     ---       ?C?ISTPTR

      ---         MODULE    ---      ---       ?C?ISTOPTR
      010002A3H   PUBLIC    CODE     ---       ?C?ISTOPTR

      ---         MODULE    ---      ---       ?C?LMUL
      010002D0H   PUBLIC    CODE     ---       ?C?LMUL

      ---         MODULE    ---      ---       ?C?ULDIV
      0100035BH   PUBLIC    CODE     ---       ?C?ULDIV

      ---         MODULE    ---      ---       ?C?ULCMP
      010003EDH   PUBLIC    CODE     ---       ?C?ULCMP

      ---         MODULE    ---      ---       ?C?LSHL
      010003FEH   PUBLIC    CODE     ---       ?C?LSHL

      ---         MODULE    ---      ---       ?C?LLDIDATA0
      01000411H   PUBLIC    CODE     ---       ?C?LLDIDATA0

      ---         MODULE    ---      ---       ?C?LSTIDATA
      0100041EH   PUBLIC    CODE     ---       ?C?LSTIDATA

      ---         MODULE    ---      ---       ?C?LSTXDATA
      0100042AH   PUBLIC    CODE     ---       ?C?LSTXDATA

      ---         MODULE    ---      ---       ?C?LSTKIDATA
      01000436H   PUBLIC    CODE     ---       ?C?LSTKIDATA

      ---         MODULE    ---      ---       ?C?OFFXADD
      0100044FH   PUBLIC    CODE     ---       ?C?OFFXADD

      ---         MODULE    ---      ---       ?C?ICALL
      0100045BH   PUBLIC    CODE     ---       ?C?ICALL
      0100045FH   PUBLIC    CODE     ---       ?C?ICALL2

      ---         MODULE    ---      ---       ?C?LIMUL
      01000461H   PUBLIC    CODE     ---       ?C?LIMUL

      ---         MODULE    ---      ---       PRINTF

      ---         MODULE    ---      ---       ?C?CLDPTR
      0100048EH   PUBLIC    CODE     ---       ?C?CLDPTR

      ---         MODULE    ---      ---       ?C?CLDOPTR
      010004A7H   PUBLIC    CODE     ---       ?C?CLDOPTR

      ---         MODULE    ---      ---       ?C?CSTPTR
      010004D4H   PUBLIC    CODE     ---       ?C?CSTPTR

LX51 LINKER/LOCATER V4.66.30.0                                                        07/11/2017  21:49:04  PAGE 90


      ---         MODULE    ---      ---       ?C?PLDIIDATA
      010004E6H   PUBLIC    CODE     ---       ?C?PLDIIDATA

      ---         MODULE    ---      ---       ?C?CCASE
      010004F6H   PUBLIC    CODE     ---       ?C?CCASE

      ---         MODULE    ---      ---       PUTCHAR



*** WARNING L13: RECURSIVE CALL TO FUNCTION
    CALLED:  ?CO?FILTER_CONFIG
    CALLER:  _CSLIB_CHECKNOISEONCHANNEL/NOISE_ROUTINES

*** WARNING L25: DATA TYPES DIFFERENT
    SYMBOL:  outputsensorDescriptors
    MODULE:  ./lib/efm8sb1/cslib/serial_interface/profiler_interface.OBJ (PROFILER_INTERFACE)
   DEFINED:  ./lib/efm8sb1/cslib/serial_interface/sensor_descriptors.OBJ (SENSOR_DESCRIPTORS)

Program Size: data=226.0 xdata=178 const=27 code=7098
LX51 RUN COMPLETE.  2 WARNING(S),  0 ERROR(S)
